
softwareDisplay2024V2.elf:     file format elf32-littlearm

Sections:
Idx Name          Size      VMA       LMA       File off  Algn
  0 .isr_vector   00000188  08000000  08000000  00001000  2**0
                  CONTENTS, ALLOC, LOAD, READONLY, DATA
  1 .text         000030b0  08000190  08000190  00001190  2**4
                  CONTENTS, ALLOC, LOAD, READONLY, CODE
  2 .rodata       000001d4  08003240  08003240  00004240  2**0
                  CONTENTS, ALLOC, LOAD, READONLY, DATA
  3 .ARM.extab    00000000  08003414  08003414  00005248  2**0
                  CONTENTS, READONLY
  4 .ARM          00000008  08003414  08003414  00004414  2**2
                  CONTENTS, ALLOC, LOAD, READONLY, DATA
  5 .preinit_array 00000000  0800341c  0800341c  00005248  2**0
                  CONTENTS, ALLOC, LOAD, DATA
  6 .init_array   00000004  0800341c  0800341c  0000441c  2**2
                  CONTENTS, ALLOC, LOAD, READONLY, DATA
  7 .fini_array   00000004  08003420  08003420  00004420  2**2
                  CONTENTS, ALLOC, LOAD, READONLY, DATA
  8 .data         00000248  20000000  08003424  00005000  2**2
                  CONTENTS, ALLOC, LOAD, DATA
  9 .ccmram       00000000  10000000  10000000  00005248  2**0
                  CONTENTS
 10 .bss          00000388  20000248  20000248  00005248  2**2
                  ALLOC
 11 ._user_heap_stack 00000600  200005d0  200005d0  00005248  2**0
                  ALLOC
 12 .ARM.attributes 00000030  00000000  00000000  00005248  2**0
                  CONTENTS, READONLY
 13 .comment      00000043  00000000  00000000  00005278  2**0
                  CONTENTS, READONLY
 14 .debug_frame  000005ac  00000000  00000000  000052bc  2**2
                  CONTENTS, READONLY, DEBUGGING, OCTETS

Disassembly of section .text:

08000190 <__do_global_dtors_aux>:
 8000190:	b510      	push	{r4, lr}
 8000192:	4c05      	ldr	r4, [pc, #20]	@ (80001a8 <__do_global_dtors_aux+0x18>)
 8000194:	7823      	ldrb	r3, [r4, #0]
 8000196:	b933      	cbnz	r3, 80001a6 <__do_global_dtors_aux+0x16>
 8000198:	4b04      	ldr	r3, [pc, #16]	@ (80001ac <__do_global_dtors_aux+0x1c>)
 800019a:	b113      	cbz	r3, 80001a2 <__do_global_dtors_aux+0x12>
 800019c:	4804      	ldr	r0, [pc, #16]	@ (80001b0 <__do_global_dtors_aux+0x20>)
 800019e:	f3af 8000 	nop.w
 80001a2:	2301      	movs	r3, #1
 80001a4:	7023      	strb	r3, [r4, #0]
 80001a6:	bd10      	pop	{r4, pc}
 80001a8:	20000248 	.word	0x20000248
 80001ac:	00000000 	.word	0x00000000
 80001b0:	08003228 	.word	0x08003228

080001b4 <frame_dummy>:
 80001b4:	b508      	push	{r3, lr}
 80001b6:	4b03      	ldr	r3, [pc, #12]	@ (80001c4 <frame_dummy+0x10>)
 80001b8:	b11b      	cbz	r3, 80001c2 <frame_dummy+0xe>
 80001ba:	4903      	ldr	r1, [pc, #12]	@ (80001c8 <frame_dummy+0x14>)
 80001bc:	4803      	ldr	r0, [pc, #12]	@ (80001cc <frame_dummy+0x18>)
 80001be:	f3af 8000 	nop.w
 80001c2:	bd08      	pop	{r3, pc}
 80001c4:	00000000 	.word	0x00000000
 80001c8:	2000024c 	.word	0x2000024c
 80001cc:	08003228 	.word	0x08003228

080001d0 <memchr>:
 80001d0:	f001 01ff 	and.w	r1, r1, #255	@ 0xff
 80001d4:	2a10      	cmp	r2, #16
 80001d6:	db2b      	blt.n	8000230 <memchr+0x60>
 80001d8:	f010 0f07 	tst.w	r0, #7
 80001dc:	d008      	beq.n	80001f0 <memchr+0x20>
 80001de:	f810 3b01 	ldrb.w	r3, [r0], #1
 80001e2:	3a01      	subs	r2, #1
 80001e4:	428b      	cmp	r3, r1
 80001e6:	d02d      	beq.n	8000244 <memchr+0x74>
 80001e8:	f010 0f07 	tst.w	r0, #7
 80001ec:	b342      	cbz	r2, 8000240 <memchr+0x70>
 80001ee:	d1f6      	bne.n	80001de <memchr+0xe>
 80001f0:	b4f0      	push	{r4, r5, r6, r7}
 80001f2:	ea41 2101 	orr.w	r1, r1, r1, lsl #8
 80001f6:	ea41 4101 	orr.w	r1, r1, r1, lsl #16
 80001fa:	f022 0407 	bic.w	r4, r2, #7
 80001fe:	f07f 0700 	mvns.w	r7, #0
 8000202:	2300      	movs	r3, #0
 8000204:	e8f0 5602 	ldrd	r5, r6, [r0], #8
 8000208:	3c08      	subs	r4, #8
 800020a:	ea85 0501 	eor.w	r5, r5, r1
 800020e:	ea86 0601 	eor.w	r6, r6, r1
 8000212:	fa85 f547 	uadd8	r5, r5, r7
 8000216:	faa3 f587 	sel	r5, r3, r7
 800021a:	fa86 f647 	uadd8	r6, r6, r7
 800021e:	faa5 f687 	sel	r6, r5, r7
 8000222:	b98e      	cbnz	r6, 8000248 <memchr+0x78>
 8000224:	d1ee      	bne.n	8000204 <memchr+0x34>
 8000226:	bcf0      	pop	{r4, r5, r6, r7}
 8000228:	f001 01ff 	and.w	r1, r1, #255	@ 0xff
 800022c:	f002 0207 	and.w	r2, r2, #7
 8000230:	b132      	cbz	r2, 8000240 <memchr+0x70>
 8000232:	f810 3b01 	ldrb.w	r3, [r0], #1
 8000236:	3a01      	subs	r2, #1
 8000238:	ea83 0301 	eor.w	r3, r3, r1
 800023c:	b113      	cbz	r3, 8000244 <memchr+0x74>
 800023e:	d1f8      	bne.n	8000232 <memchr+0x62>
 8000240:	2000      	movs	r0, #0
 8000242:	4770      	bx	lr
 8000244:	3801      	subs	r0, #1
 8000246:	4770      	bx	lr
 8000248:	2d00      	cmp	r5, #0
 800024a:	bf06      	itte	eq
 800024c:	4635      	moveq	r5, r6
 800024e:	3803      	subeq	r0, #3
 8000250:	3807      	subne	r0, #7
 8000252:	f015 0f01 	tst.w	r5, #1
 8000256:	d107      	bne.n	8000268 <memchr+0x98>
 8000258:	3001      	adds	r0, #1
 800025a:	f415 7f80 	tst.w	r5, #256	@ 0x100
 800025e:	bf02      	ittt	eq
 8000260:	3001      	addeq	r0, #1
 8000262:	f415 3fc0 	tsteq.w	r5, #98304	@ 0x18000
 8000266:	3001      	addeq	r0, #1
 8000268:	bcf0      	pop	{r4, r5, r6, r7}
 800026a:	3801      	subs	r0, #1
 800026c:	4770      	bx	lr
 800026e:	bf00      	nop

08000270 <CAN_setup>:
 8000270:	4915      	ldr	r1, [pc, #84]	@ (80002c8 <CAN_setup+0x58>)
 8000272:	4816      	ldr	r0, [pc, #88]	@ (80002cc <CAN_setup+0x5c>)
 8000274:	b508      	push	{r3, lr}
 8000276:	2201      	movs	r2, #1
 8000278:	2300      	movs	r3, #0
 800027a:	e9c1 3304 	strd	r3, r3, [r1, #16]
 800027e:	e9c1 3300 	strd	r3, r3, [r1]
 8000282:	e9c1 3302 	strd	r3, r3, [r1, #8]
 8000286:	e9c1 3206 	strd	r3, r2, [r1, #24]
 800028a:	620a      	str	r2, [r1, #32]
 800028c:	f000 ff69 	bl	8001162 <HAL_CAN_ConfigFilter>
 8000290:	b108      	cbz	r0, 8000296 <CAN_setup+0x26>
 8000292:	f000 fc6d 	bl	8000b70 <Error_Handler>
 8000296:	480d      	ldr	r0, [pc, #52]	@ (80002cc <CAN_setup+0x5c>)
 8000298:	f000 ffd1 	bl	800123e <HAL_CAN_Start>
 800029c:	480b      	ldr	r0, [pc, #44]	@ (80002cc <CAN_setup+0x5c>)
 800029e:	2102      	movs	r1, #2
 80002a0:	f001 f8bf 	bl	8001422 <HAL_CAN_ActivateNotification>
 80002a4:	b108      	cbz	r0, 80002aa <CAN_setup+0x3a>
 80002a6:	f000 fc63 	bl	8000b70 <Error_Handler>
 80002aa:	4b09      	ldr	r3, [pc, #36]	@ (80002d0 <CAN_setup+0x60>)
 80002ac:	2216      	movs	r2, #22
 80002ae:	2101      	movs	r1, #1
 80002b0:	601a      	str	r2, [r3, #0]
 80002b2:	2200      	movs	r2, #0
 80002b4:	6119      	str	r1, [r3, #16]
 80002b6:	e9c3 2202 	strd	r2, r2, [r3, #8]
 80002ba:	4b06      	ldr	r3, [pc, #24]	@ (80002d4 <CAN_setup+0x64>)
 80002bc:	6119      	str	r1, [r3, #16]
 80002be:	2140      	movs	r1, #64	@ 0x40
 80002c0:	e9c3 2202 	strd	r2, r2, [r3, #8]
 80002c4:	6019      	str	r1, [r3, #0]
 80002c6:	bd08      	pop	{r3, pc}
 80002c8:	200002fc 	.word	0x200002fc
 80002cc:	20000264 	.word	0x20000264
 80002d0:	2000033c 	.word	0x2000033c
 80002d4:	20000324 	.word	0x20000324

080002d8 <MX_CAN_Init>:
 80002d8:	480c      	ldr	r0, [pc, #48]	@ (800030c <MX_CAN_Init+0x34>)
 80002da:	4a0d      	ldr	r2, [pc, #52]	@ (8000310 <MX_CAN_Init+0x38>)
 80002dc:	b508      	push	{r3, lr}
 80002de:	2306      	movs	r3, #6
 80002e0:	e9c0 2300 	strd	r2, r3, [r0]
 80002e4:	f44f 2180 	mov.w	r1, #262144	@ 0x40000
 80002e8:	2300      	movs	r3, #0
 80002ea:	f44f 1280 	mov.w	r2, #1048576	@ 0x100000
 80002ee:	e9c0 3302 	strd	r3, r3, [r0, #8]
 80002f2:	e9c0 1204 	strd	r1, r2, [r0, #16]
 80002f6:	6183      	str	r3, [r0, #24]
 80002f8:	8383      	strh	r3, [r0, #28]
 80002fa:	f000 feb7 	bl	800106c <HAL_CAN_Init>
 80002fe:	b118      	cbz	r0, 8000308 <MX_CAN_Init+0x30>
 8000300:	e8bd 4008 	ldmia.w	sp!, {r3, lr}
 8000304:	f000 bc34 	b.w	8000b70 <Error_Handler>
 8000308:	bd08      	pop	{r3, pc}
 800030a:	bf00      	nop
 800030c:	20000264 	.word	0x20000264
 8000310:	40006400 	.word	0x40006400

08000314 <HAL_CAN_MspInit>:
 8000314:	b510      	push	{r4, lr}
 8000316:	4604      	mov	r4, r0
 8000318:	b088      	sub	sp, #32
 800031a:	2214      	movs	r2, #20
 800031c:	2100      	movs	r1, #0
 800031e:	a803      	add	r0, sp, #12
 8000320:	f002 fafc 	bl	800291c <memset>
 8000324:	6822      	ldr	r2, [r4, #0]
 8000326:	4b13      	ldr	r3, [pc, #76]	@ (8000374 <HAL_CAN_MspInit+0x60>)
 8000328:	429a      	cmp	r2, r3
 800032a:	d121      	bne.n	8000370 <HAL_CAN_MspInit+0x5c>
 800032c:	f503 33d6 	add.w	r3, r3, #109568	@ 0x1ac00
 8000330:	2103      	movs	r1, #3
 8000332:	69da      	ldr	r2, [r3, #28]
 8000334:	f042 7200 	orr.w	r2, r2, #33554432	@ 0x2000000
 8000338:	61da      	str	r2, [r3, #28]
 800033a:	69da      	ldr	r2, [r3, #28]
 800033c:	f002 7200 	and.w	r2, r2, #33554432	@ 0x2000000
 8000340:	9201      	str	r2, [sp, #4]
 8000342:	9a01      	ldr	r2, [sp, #4]
 8000344:	695a      	ldr	r2, [r3, #20]
 8000346:	f442 3200 	orr.w	r2, r2, #131072	@ 0x20000
 800034a:	615a      	str	r2, [r3, #20]
 800034c:	695b      	ldr	r3, [r3, #20]
 800034e:	f403 3300 	and.w	r3, r3, #131072	@ 0x20000
 8000352:	9302      	str	r3, [sp, #8]
 8000354:	9b02      	ldr	r3, [sp, #8]
 8000356:	f44f 52c0 	mov.w	r2, #6144	@ 0x1800
 800035a:	2302      	movs	r3, #2
 800035c:	e9cd 2303 	strd	r2, r3, [sp, #12]
 8000360:	2309      	movs	r3, #9
 8000362:	e9cd 1306 	strd	r1, r3, [sp, #24]
 8000366:	f04f 4090 	mov.w	r0, #1207959552	@ 0x48000000
 800036a:	a903      	add	r1, sp, #12
 800036c:	f001 f9e0 	bl	8001730 <HAL_GPIO_Init>
 8000370:	b008      	add	sp, #32
 8000372:	bd10      	pop	{r4, pc}
 8000374:	40006400 	.word	0x40006400

08000378 <process_can_message>:
 8000378:	6803      	ldr	r3, [r0, #0]
 800037a:	2b26      	cmp	r3, #38	@ 0x26
 800037c:	d80c      	bhi.n	8000398 <process_can_message+0x20>
 800037e:	2b20      	cmp	r3, #32
 8000380:	d802      	bhi.n	8000388 <process_can_message+0x10>
 8000382:	2b12      	cmp	r3, #18
 8000384:	d00b      	beq.n	800039e <process_can_message+0x26>
 8000386:	4770      	bx	lr
 8000388:	3b21      	subs	r3, #33	@ 0x21
 800038a:	2b05      	cmp	r3, #5
 800038c:	d85a      	bhi.n	8000444 <process_can_message+0xcc>
 800038e:	e8df f003 	tbb	[pc, r3]
 8000392:	5915      	.short	0x5915
 8000394:	51590c2b 	.word	0x51590c2b
 8000398:	2b40      	cmp	r3, #64	@ 0x40
 800039a:	d039      	beq.n	8000410 <process_can_message+0x98>
 800039c:	4770      	bx	lr
 800039e:	780b      	ldrb	r3, [r1, #0]
 80003a0:	4a29      	ldr	r2, [pc, #164]	@ (8000448 <process_can_message+0xd0>)
 80003a2:	f003 0301 	and.w	r3, r3, #1
 80003a6:	8013      	strh	r3, [r2, #0]
 80003a8:	4770      	bx	lr
 80003aa:	6903      	ldr	r3, [r0, #16]
 80003ac:	2b04      	cmp	r3, #4
 80003ae:	d105      	bne.n	80003bc <process_can_message+0x44>
 80003b0:	880b      	ldrh	r3, [r1, #0]
 80003b2:	884a      	ldrh	r2, [r1, #2]
 80003b4:	4413      	add	r3, r2
 80003b6:	4a25      	ldr	r2, [pc, #148]	@ (800044c <process_can_message+0xd4>)
 80003b8:	105b      	asrs	r3, r3, #1
 80003ba:	8013      	strh	r3, [r2, #0]
 80003bc:	6902      	ldr	r2, [r0, #16]
 80003be:	2a06      	cmp	r2, #6
 80003c0:	d140      	bne.n	8000444 <process_can_message+0xcc>
 80003c2:	7848      	ldrb	r0, [r1, #1]
 80003c4:	780b      	ldrb	r3, [r1, #0]
 80003c6:	4403      	add	r3, r0
 80003c8:	7888      	ldrb	r0, [r1, #2]
 80003ca:	4403      	add	r3, r0
 80003cc:	78c8      	ldrb	r0, [r1, #3]
 80003ce:	4403      	add	r3, r0
 80003d0:	7908      	ldrb	r0, [r1, #4]
 80003d2:	7949      	ldrb	r1, [r1, #5]
 80003d4:	4403      	add	r3, r0
 80003d6:	440b      	add	r3, r1
 80003d8:	fbb3 f3f2 	udiv	r3, r3, r2
 80003dc:	4a1c      	ldr	r2, [pc, #112]	@ (8000450 <process_can_message+0xd8>)
 80003de:	8013      	strh	r3, [r2, #0]
 80003e0:	4b1c      	ldr	r3, [pc, #112]	@ (8000454 <process_can_message+0xdc>)
 80003e2:	2201      	movs	r2, #1
 80003e4:	705a      	strb	r2, [r3, #1]
 80003e6:	4770      	bx	lr
 80003e8:	6903      	ldr	r3, [r0, #16]
 80003ea:	2b08      	cmp	r3, #8
 80003ec:	d12a      	bne.n	8000444 <process_can_message+0xcc>
 80003ee:	880b      	ldrh	r3, [r1, #0]
 80003f0:	884a      	ldrh	r2, [r1, #2]
 80003f2:	4413      	add	r3, r2
 80003f4:	4a18      	ldr	r2, [pc, #96]	@ (8000458 <process_can_message+0xe0>)
 80003f6:	105b      	asrs	r3, r3, #1
 80003f8:	8013      	strh	r3, [r2, #0]
 80003fa:	88ca      	ldrh	r2, [r1, #6]
 80003fc:	888b      	ldrh	r3, [r1, #4]
 80003fe:	4413      	add	r3, r2
 8000400:	4a16      	ldr	r2, [pc, #88]	@ (800045c <process_can_message+0xe4>)
 8000402:	105b      	asrs	r3, r3, #1
 8000404:	8013      	strh	r3, [r2, #0]
 8000406:	4b13      	ldr	r3, [pc, #76]	@ (8000454 <process_can_message+0xdc>)
 8000408:	2201      	movs	r2, #1
 800040a:	709a      	strb	r2, [r3, #2]
 800040c:	70da      	strb	r2, [r3, #3]
 800040e:	4770      	bx	lr
 8000410:	6903      	ldr	r3, [r0, #16]
 8000412:	2b04      	cmp	r3, #4
 8000414:	d116      	bne.n	8000444 <process_can_message+0xcc>
 8000416:	f9b1 3000 	ldrsh.w	r3, [r1]
 800041a:	f9b1 2002 	ldrsh.w	r2, [r1, #2]
 800041e:	4413      	add	r3, r2
 8000420:	eb03 73d3 	add.w	r3, r3, r3, lsr #31
 8000424:	4a0e      	ldr	r2, [pc, #56]	@ (8000460 <process_can_message+0xe8>)
 8000426:	f3c3 0347 	ubfx	r3, r3, #1, #8
 800042a:	8013      	strh	r3, [r2, #0]
 800042c:	4b09      	ldr	r3, [pc, #36]	@ (8000454 <process_can_message+0xdc>)
 800042e:	2201      	movs	r2, #1
 8000430:	701a      	strb	r2, [r3, #0]
 8000432:	4770      	bx	lr
 8000434:	6903      	ldr	r3, [r0, #16]
 8000436:	2b01      	cmp	r3, #1
 8000438:	d104      	bne.n	8000444 <process_can_message+0xcc>
 800043a:	4a0a      	ldr	r2, [pc, #40]	@ (8000464 <process_can_message+0xec>)
 800043c:	7809      	ldrb	r1, [r1, #0]
 800043e:	8011      	strh	r1, [r2, #0]
 8000440:	4a04      	ldr	r2, [pc, #16]	@ (8000454 <process_can_message+0xdc>)
 8000442:	7193      	strb	r3, [r2, #6]
 8000444:	4770      	bx	lr
 8000446:	bf00      	nop
 8000448:	20000358 	.word	0x20000358
 800044c:	200002c8 	.word	0x200002c8
 8000450:	200002d0 	.word	0x200002d0
 8000454:	200002b4 	.word	0x200002b4
 8000458:	200002ce 	.word	0x200002ce
 800045c:	200002cc 	.word	0x200002cc
 8000460:	200002d2 	.word	0x200002d2
 8000464:	200002ca 	.word	0x200002ca

08000468 <HAL_CAN_RxFifo0MsgPendingCallback>:
 8000468:	b508      	push	{r3, lr}
 800046a:	4a08      	ldr	r2, [pc, #32]	@ (800048c <HAL_CAN_RxFifo0MsgPendingCallback+0x24>)
 800046c:	4b08      	ldr	r3, [pc, #32]	@ (8000490 <HAL_CAN_RxFifo0MsgPendingCallback+0x28>)
 800046e:	2100      	movs	r1, #0
 8000470:	f000 ff5b 	bl	800132a <HAL_CAN_GetRxMessage>
 8000474:	b928      	cbnz	r0, 8000482 <HAL_CAN_RxFifo0MsgPendingCallback+0x1a>
 8000476:	e8bd 4008 	ldmia.w	sp!, {r3, lr}
 800047a:	4905      	ldr	r1, [pc, #20]	@ (8000490 <HAL_CAN_RxFifo0MsgPendingCallback+0x28>)
 800047c:	4803      	ldr	r0, [pc, #12]	@ (800048c <HAL_CAN_RxFifo0MsgPendingCallback+0x24>)
 800047e:	f7ff bf7b 	b.w	8000378 <process_can_message>
 8000482:	e8bd 4008 	ldmia.w	sp!, {r3, lr}
 8000486:	f000 bb73 	b.w	8000b70 <Error_Handler>
 800048a:	bf00      	nop
 800048c:	200002e0 	.word	0x200002e0
 8000490:	200002d8 	.word	0x200002d8

08000494 <MX_GPIO_Init>:
 8000494:	b570      	push	{r4, r5, r6, lr}
 8000496:	b088      	sub	sp, #32
 8000498:	2214      	movs	r2, #20
 800049a:	2100      	movs	r1, #0
 800049c:	a803      	add	r0, sp, #12
 800049e:	f002 fa3d 	bl	800291c <memset>
 80004a2:	4b22      	ldr	r3, [pc, #136]	@ (800052c <MX_GPIO_Init+0x98>)
 80004a4:	4d22      	ldr	r5, [pc, #136]	@ (8000530 <MX_GPIO_Init+0x9c>)
 80004a6:	695a      	ldr	r2, [r3, #20]
 80004a8:	f442 0280 	orr.w	r2, r2, #4194304	@ 0x400000
 80004ac:	615a      	str	r2, [r3, #20]
 80004ae:	695a      	ldr	r2, [r3, #20]
 80004b0:	f402 0280 	and.w	r2, r2, #4194304	@ 0x400000
 80004b4:	9200      	str	r2, [sp, #0]
 80004b6:	9a00      	ldr	r2, [sp, #0]
 80004b8:	695a      	ldr	r2, [r3, #20]
 80004ba:	f442 3200 	orr.w	r2, r2, #131072	@ 0x20000
 80004be:	615a      	str	r2, [r3, #20]
 80004c0:	695a      	ldr	r2, [r3, #20]
 80004c2:	f402 3200 	and.w	r2, r2, #131072	@ 0x20000
 80004c6:	9201      	str	r2, [sp, #4]
 80004c8:	9a01      	ldr	r2, [sp, #4]
 80004ca:	695a      	ldr	r2, [r3, #20]
 80004cc:	f442 2280 	orr.w	r2, r2, #262144	@ 0x40000
 80004d0:	615a      	str	r2, [r3, #20]
 80004d2:	695b      	ldr	r3, [r3, #20]
 80004d4:	f403 2380 	and.w	r3, r3, #262144	@ 0x40000
 80004d8:	9302      	str	r3, [sp, #8]
 80004da:	4628      	mov	r0, r5
 80004dc:	2200      	movs	r2, #0
 80004de:	2118      	movs	r1, #24
 80004e0:	9b02      	ldr	r3, [sp, #8]
 80004e2:	2601      	movs	r6, #1
 80004e4:	f001 f9e8 	bl	80018b8 <HAL_GPIO_WritePin>
 80004e8:	2230      	movs	r2, #48	@ 0x30
 80004ea:	f44f 1304 	mov.w	r3, #2162688	@ 0x210000
 80004ee:	a903      	add	r1, sp, #12
 80004f0:	f04f 4090 	mov.w	r0, #1207959552	@ 0x48000000
 80004f4:	e9cd 2303 	strd	r2, r3, [sp, #12]
 80004f8:	2400      	movs	r4, #0
 80004fa:	9605      	str	r6, [sp, #20]
 80004fc:	f001 f918 	bl	8001730 <HAL_GPIO_Init>
 8000500:	f44f 4300 	mov.w	r3, #32768	@ 0x8000
 8000504:	a903      	add	r1, sp, #12
 8000506:	f04f 4090 	mov.w	r0, #1207959552	@ 0x48000000
 800050a:	e9cd 3403 	strd	r3, r4, [sp, #12]
 800050e:	9405      	str	r4, [sp, #20]
 8000510:	f001 f90e 	bl	8001730 <HAL_GPIO_Init>
 8000514:	2318      	movs	r3, #24
 8000516:	a903      	add	r1, sp, #12
 8000518:	4628      	mov	r0, r5
 800051a:	e9cd 3603 	strd	r3, r6, [sp, #12]
 800051e:	e9cd 4405 	strd	r4, r4, [sp, #20]
 8000522:	f001 f905 	bl	8001730 <HAL_GPIO_Init>
 8000526:	b008      	add	sp, #32
 8000528:	bd70      	pop	{r4, r5, r6, pc}
 800052a:	bf00      	nop
 800052c:	40021000 	.word	0x40021000
 8000530:	48000400 	.word	0x48000400

08000534 <HAL_GPIO_EXTI_Callback>:
 8000534:	b538      	push	{r3, r4, r5, lr}
 8000536:	4b1b      	ldr	r3, [pc, #108]	@ (80005a4 <HAL_GPIO_EXTI_Callback+0x70>)
 8000538:	781b      	ldrb	r3, [r3, #0]
 800053a:	2b01      	cmp	r3, #1
 800053c:	4601      	mov	r1, r0
 800053e:	d103      	bne.n	8000548 <HAL_GPIO_EXTI_Callback+0x14>
 8000540:	2810      	cmp	r0, #16
 8000542:	d002      	beq.n	800054a <HAL_GPIO_EXTI_Callback+0x16>
 8000544:	2820      	cmp	r0, #32
 8000546:	d023      	beq.n	8000590 <HAL_GPIO_EXTI_Callback+0x5c>
 8000548:	bd38      	pop	{r3, r4, r5, pc}
 800054a:	4d17      	ldr	r5, [pc, #92]	@ (80005a8 <HAL_GPIO_EXTI_Callback+0x74>)
 800054c:	782b      	ldrb	r3, [r5, #0]
 800054e:	2b01      	cmp	r3, #1
 8000550:	b2dc      	uxtb	r4, r3
 8000552:	d1f9      	bne.n	8000548 <HAL_GPIO_EXTI_Callback+0x14>
 8000554:	f04f 4090 	mov.w	r0, #1207959552	@ 0x48000000
 8000558:	f001 f9a8 	bl	80018ac <HAL_GPIO_ReadPin>
 800055c:	2800      	cmp	r0, #0
 800055e:	d1f3      	bne.n	8000548 <HAL_GPIO_EXTI_Callback+0x14>
 8000560:	4b12      	ldr	r3, [pc, #72]	@ (80005ac <HAL_GPIO_EXTI_Callback+0x78>)
 8000562:	881b      	ldrh	r3, [r3, #0]
 8000564:	b12b      	cbz	r3, 8000572 <HAL_GPIO_EXTI_Callback+0x3e>
 8000566:	4b12      	ldr	r3, [pc, #72]	@ (80005b0 <HAL_GPIO_EXTI_Callback+0x7c>)
 8000568:	4a12      	ldr	r2, [pc, #72]	@ (80005b4 <HAL_GPIO_EXTI_Callback+0x80>)
 800056a:	8819      	ldrh	r1, [r3, #0]
 800056c:	b971      	cbnz	r1, 800058c <HAL_GPIO_EXTI_Callback+0x58>
 800056e:	801c      	strh	r4, [r3, #0]
 8000570:	71d4      	strb	r4, [r2, #7]
 8000572:	4b11      	ldr	r3, [pc, #68]	@ (80005b8 <HAL_GPIO_EXTI_Callback+0x84>)
 8000574:	4a0e      	ldr	r2, [pc, #56]	@ (80005b0 <HAL_GPIO_EXTI_Callback+0x7c>)
 8000576:	4911      	ldr	r1, [pc, #68]	@ (80005bc <HAL_GPIO_EXTI_Callback+0x88>)
 8000578:	4811      	ldr	r0, [pc, #68]	@ (80005c0 <HAL_GPIO_EXTI_Callback+0x8c>)
 800057a:	f000 fe8b 	bl	8001294 <HAL_CAN_AddTxMessage>
 800057e:	2300      	movs	r3, #0
 8000580:	702b      	strb	r3, [r5, #0]
 8000582:	f000 fd59 	bl	8001038 <HAL_GetTick>
 8000586:	4b0f      	ldr	r3, [pc, #60]	@ (80005c4 <HAL_GPIO_EXTI_Callback+0x90>)
 8000588:	6018      	str	r0, [r3, #0]
 800058a:	e7dd      	b.n	8000548 <HAL_GPIO_EXTI_Callback+0x14>
 800058c:	8018      	strh	r0, [r3, #0]
 800058e:	e7ef      	b.n	8000570 <HAL_GPIO_EXTI_Callback+0x3c>
 8000590:	f04f 4090 	mov.w	r0, #1207959552	@ 0x48000000
 8000594:	f001 f98a 	bl	80018ac <HAL_GPIO_ReadPin>
 8000598:	2800      	cmp	r0, #0
 800059a:	d1d5      	bne.n	8000548 <HAL_GPIO_EXTI_Callback+0x14>
 800059c:	e8bd 4038 	ldmia.w	sp!, {r3, r4, r5, lr}
 80005a0:	f000 bad4 	b.w	8000b4c <system_reset>
 80005a4:	2000035b 	.word	0x2000035b
 80005a8:	200001e9 	.word	0x200001e9
 80005ac:	20000358 	.word	0x20000358
 80005b0:	20000356 	.word	0x20000356
 80005b4:	200002b4 	.word	0x200002b4
 80005b8:	200002d4 	.word	0x200002d4
 80005bc:	2000033c 	.word	0x2000033c
 80005c0:	20000264 	.word	0x20000264
 80005c4:	200002c0 	.word	0x200002c0

080005c8 <SystemClock_Config>:
 80005c8:	b530      	push	{r4, r5, lr}
 80005ca:	b091      	sub	sp, #68	@ 0x44
 80005cc:	2220      	movs	r2, #32
 80005ce:	2100      	movs	r1, #0
 80005d0:	a807      	add	r0, sp, #28
 80005d2:	f002 f9a3 	bl	800291c <memset>
 80005d6:	2214      	movs	r2, #20
 80005d8:	2100      	movs	r1, #0
 80005da:	a801      	add	r0, sp, #4
 80005dc:	f002 f99e 	bl	800291c <memset>
 80005e0:	2501      	movs	r5, #1
 80005e2:	2310      	movs	r3, #16
 80005e4:	2402      	movs	r4, #2
 80005e6:	e9cd 530a 	strd	r5, r3, [sp, #40]	@ 0x28
 80005ea:	a806      	add	r0, sp, #24
 80005ec:	f44f 1320 	mov.w	r3, #2621440	@ 0x280000
 80005f0:	9406      	str	r4, [sp, #24]
 80005f2:	940d      	str	r4, [sp, #52]	@ 0x34
 80005f4:	930f      	str	r3, [sp, #60]	@ 0x3c
 80005f6:	f001 f971 	bl	80018dc <HAL_RCC_OscConfig>
 80005fa:	b108      	cbz	r0, 8000600 <SystemClock_Config+0x38>
 80005fc:	b672      	cpsid	i
 80005fe:	e7fe      	b.n	80005fe <SystemClock_Config+0x36>
 8000600:	230f      	movs	r3, #15
 8000602:	e9cd 3401 	strd	r3, r4, [sp, #4]
 8000606:	f44f 6380 	mov.w	r3, #1024	@ 0x400
 800060a:	e9cd 3004 	strd	r3, r0, [sp, #16]
 800060e:	9003      	str	r0, [sp, #12]
 8000610:	4629      	mov	r1, r5
 8000612:	a801      	add	r0, sp, #4
 8000614:	f001 fbe2 	bl	8001ddc <HAL_RCC_ClockConfig>
 8000618:	b108      	cbz	r0, 800061e <SystemClock_Config+0x56>
 800061a:	b672      	cpsid	i
 800061c:	e7fe      	b.n	800061c <SystemClock_Config+0x54>
 800061e:	b011      	add	sp, #68	@ 0x44
 8000620:	bd30      	pop	{r4, r5, pc}
	...

08000624 <NEXTION_SendString>:
 8000624:	b560      	push	{r5, r6, lr}
 8000626:	3a06      	subs	r2, #6
 8000628:	b08f      	sub	sp, #60	@ 0x3c
 800062a:	460d      	mov	r5, r1
 800062c:	2a06      	cmp	r2, #6
 800062e:	f200 8103 	bhi.w	8000838 <NEXTION_SendString+0x214>
 8000632:	e8df f012 	tbh	[pc, r2, lsl #1]
 8000636:	0007      	.short	0x0007
 8000638:	0068004a 	.word	0x0068004a
 800063c:	01010101 	.word	0x01010101
 8000640:	00c2006e 	.word	0x00c2006e
 8000644:	460b      	mov	r3, r1
 8000646:	4602      	mov	r2, r0
 8000648:	497f      	ldr	r1, [pc, #508]	@ (8000848 <NEXTION_SendString+0x224>)
 800064a:	a801      	add	r0, sp, #4
 800064c:	f002 f944 	bl	80028d8 <siprintf>
 8000650:	f04f 33ff 	mov.w	r3, #4294967295
 8000654:	b282      	uxth	r2, r0
 8000656:	a901      	add	r1, sp, #4
 8000658:	487c      	ldr	r0, [pc, #496]	@ (800084c <NEXTION_SendString+0x228>)
 800065a:	f002 f865 	bl	8002728 <HAL_UART_Transmit>
 800065e:	497c      	ldr	r1, [pc, #496]	@ (8000850 <NEXTION_SendString+0x22c>)
 8000660:	487a      	ldr	r0, [pc, #488]	@ (800084c <NEXTION_SendString+0x228>)
 8000662:	f04f 33ff 	mov.w	r3, #4294967295
 8000666:	2203      	movs	r2, #3
 8000668:	f002 f85e 	bl	8002728 <HAL_UART_Transmit>
 800066c:	2d13      	cmp	r5, #19
 800066e:	dc1a      	bgt.n	80006a6 <NEXTION_SendString+0x82>
 8000670:	4978      	ldr	r1, [pc, #480]	@ (8000854 <NEXTION_SendString+0x230>)
 8000672:	a801      	add	r0, sp, #4
 8000674:	f002 f986 	bl	8002984 <strcpy>
 8000678:	2217      	movs	r2, #23
 800067a:	f04f 33ff 	mov.w	r3, #4294967295
 800067e:	a901      	add	r1, sp, #4
 8000680:	4872      	ldr	r0, [pc, #456]	@ (800084c <NEXTION_SendString+0x228>)
 8000682:	f002 f851 	bl	8002728 <HAL_UART_Transmit>
 8000686:	4972      	ldr	r1, [pc, #456]	@ (8000850 <NEXTION_SendString+0x22c>)
 8000688:	4870      	ldr	r0, [pc, #448]	@ (800084c <NEXTION_SendString+0x228>)
 800068a:	2203      	movs	r2, #3
 800068c:	f04f 33ff 	mov.w	r3, #4294967295
 8000690:	f002 f84a 	bl	8002728 <HAL_UART_Transmit>
 8000694:	4970      	ldr	r1, [pc, #448]	@ (8000858 <NEXTION_SendString+0x234>)
 8000696:	462a      	mov	r2, r5
 8000698:	a801      	add	r0, sp, #4
 800069a:	f002 f91d 	bl	80028d8 <siprintf>
 800069e:	f04f 33ff 	mov.w	r3, #4294967295
 80006a2:	b282      	uxth	r2, r0
 80006a4:	e019      	b.n	80006da <NEXTION_SendString+0xb6>
 80006a6:	f1a5 0314 	sub.w	r3, r5, #20
 80006aa:	2b0f      	cmp	r3, #15
 80006ac:	d801      	bhi.n	80006b2 <NEXTION_SendString+0x8e>
 80006ae:	496b      	ldr	r1, [pc, #428]	@ (800085c <NEXTION_SendString+0x238>)
 80006b0:	e7df      	b.n	8000672 <NEXTION_SendString+0x4e>
 80006b2:	f1a5 0324 	sub.w	r3, r5, #36	@ 0x24
 80006b6:	2b13      	cmp	r3, #19
 80006b8:	d801      	bhi.n	80006be <NEXTION_SendString+0x9a>
 80006ba:	4969      	ldr	r1, [pc, #420]	@ (8000860 <NEXTION_SendString+0x23c>)
 80006bc:	e7d9      	b.n	8000672 <NEXTION_SendString+0x4e>
 80006be:	4969      	ldr	r1, [pc, #420]	@ (8000864 <NEXTION_SendString+0x240>)
 80006c0:	a801      	add	r0, sp, #4
 80006c2:	f002 f95f 	bl	8002984 <strcpy>
 80006c6:	2216      	movs	r2, #22
 80006c8:	e7d7      	b.n	800067a <NEXTION_SendString+0x56>
 80006ca:	4b67      	ldr	r3, [pc, #412]	@ (8000868 <NEXTION_SendString+0x244>)
 80006cc:	881b      	ldrh	r3, [r3, #0]
 80006ce:	b183      	cbz	r3, 80006f2 <NEXTION_SendString+0xce>
 80006d0:	2b01      	cmp	r3, #1
 80006d2:	d015      	beq.n	8000700 <NEXTION_SendString+0xdc>
 80006d4:	f04f 33ff 	mov.w	r3, #4294967295
 80006d8:	b2b2      	uxth	r2, r6
 80006da:	a901      	add	r1, sp, #4
 80006dc:	485b      	ldr	r0, [pc, #364]	@ (800084c <NEXTION_SendString+0x228>)
 80006de:	f002 f823 	bl	8002728 <HAL_UART_Transmit>
 80006e2:	495b      	ldr	r1, [pc, #364]	@ (8000850 <NEXTION_SendString+0x22c>)
 80006e4:	4859      	ldr	r0, [pc, #356]	@ (800084c <NEXTION_SendString+0x228>)
 80006e6:	f04f 33ff 	mov.w	r3, #4294967295
 80006ea:	2203      	movs	r2, #3
 80006ec:	f002 f81c 	bl	8002728 <HAL_UART_Transmit>
 80006f0:	e00d      	b.n	800070e <NEXTION_SendString+0xea>
 80006f2:	495e      	ldr	r1, [pc, #376]	@ (800086c <NEXTION_SendString+0x248>)
 80006f4:	4602      	mov	r2, r0
 80006f6:	a801      	add	r0, sp, #4
 80006f8:	f002 f8ee 	bl	80028d8 <siprintf>
 80006fc:	4606      	mov	r6, r0
 80006fe:	e7e9      	b.n	80006d4 <NEXTION_SendString+0xb0>
 8000700:	495b      	ldr	r1, [pc, #364]	@ (8000870 <NEXTION_SendString+0x24c>)
 8000702:	4602      	mov	r2, r0
 8000704:	e7f7      	b.n	80006f6 <NEXTION_SendString+0xd2>
 8000706:	4b5b      	ldr	r3, [pc, #364]	@ (8000874 <NEXTION_SendString+0x250>)
 8000708:	781b      	ldrb	r3, [r3, #0]
 800070a:	2b00      	cmp	r3, #0
 800070c:	d054      	beq.n	80007b8 <NEXTION_SendString+0x194>
 800070e:	b00f      	add	sp, #60	@ 0x3c
 8000710:	bd60      	pop	{r5, r6, pc}
 8000712:	4602      	mov	r2, r0
 8000714:	4958      	ldr	r1, [pc, #352]	@ (8000878 <NEXTION_SendString+0x254>)
 8000716:	a801      	add	r0, sp, #4
 8000718:	f002 f8de 	bl	80028d8 <siprintf>
 800071c:	f04f 33ff 	mov.w	r3, #4294967295
 8000720:	2210      	movs	r2, #16
 8000722:	a901      	add	r1, sp, #4
 8000724:	4849      	ldr	r0, [pc, #292]	@ (800084c <NEXTION_SendString+0x228>)
 8000726:	f001 ffff 	bl	8002728 <HAL_UART_Transmit>
 800072a:	f04f 33ff 	mov.w	r3, #4294967295
 800072e:	2203      	movs	r2, #3
 8000730:	4947      	ldr	r1, [pc, #284]	@ (8000850 <NEXTION_SendString+0x22c>)
 8000732:	4846      	ldr	r0, [pc, #280]	@ (800084c <NEXTION_SendString+0x228>)
 8000734:	f001 fff8 	bl	8002728 <HAL_UART_Transmit>
 8000738:	4950      	ldr	r1, [pc, #320]	@ (800087c <NEXTION_SendString+0x258>)
 800073a:	a801      	add	r0, sp, #4
 800073c:	f002 f922 	bl	8002984 <strcpy>
 8000740:	f04f 33ff 	mov.w	r3, #4294967295
 8000744:	2208      	movs	r2, #8
 8000746:	a901      	add	r1, sp, #4
 8000748:	4840      	ldr	r0, [pc, #256]	@ (800084c <NEXTION_SendString+0x228>)
 800074a:	f001 ffed 	bl	8002728 <HAL_UART_Transmit>
 800074e:	4940      	ldr	r1, [pc, #256]	@ (8000850 <NEXTION_SendString+0x22c>)
 8000750:	483e      	ldr	r0, [pc, #248]	@ (800084c <NEXTION_SendString+0x228>)
 8000752:	f04f 33ff 	mov.w	r3, #4294967295
 8000756:	2203      	movs	r2, #3
 8000758:	f001 ffe6 	bl	8002728 <HAL_UART_Transmit>
 800075c:	4b48      	ldr	r3, [pc, #288]	@ (8000880 <NEXTION_SendString+0x25c>)
 800075e:	4949      	ldr	r1, [pc, #292]	@ (8000884 <NEXTION_SendString+0x260>)
 8000760:	781a      	ldrb	r2, [r3, #0]
 8000762:	a801      	add	r0, sp, #4
 8000764:	f002 f8b8 	bl	80028d8 <siprintf>
 8000768:	f04f 33ff 	mov.w	r3, #4294967295
 800076c:	b282      	uxth	r2, r0
 800076e:	a901      	add	r1, sp, #4
 8000770:	4836      	ldr	r0, [pc, #216]	@ (800084c <NEXTION_SendString+0x228>)
 8000772:	f001 ffd9 	bl	8002728 <HAL_UART_Transmit>
 8000776:	f04f 33ff 	mov.w	r3, #4294967295
 800077a:	2203      	movs	r2, #3
 800077c:	4934      	ldr	r1, [pc, #208]	@ (8000850 <NEXTION_SendString+0x22c>)
 800077e:	4833      	ldr	r0, [pc, #204]	@ (800084c <NEXTION_SendString+0x228>)
 8000780:	f001 ffd2 	bl	8002728 <HAL_UART_Transmit>
 8000784:	4940      	ldr	r1, [pc, #256]	@ (8000888 <NEXTION_SendString+0x264>)
 8000786:	a801      	add	r0, sp, #4
 8000788:	f002 f8fc 	bl	8002984 <strcpy>
 800078c:	f04f 33ff 	mov.w	r3, #4294967295
 8000790:	220f      	movs	r2, #15
 8000792:	a901      	add	r1, sp, #4
 8000794:	482d      	ldr	r0, [pc, #180]	@ (800084c <NEXTION_SendString+0x228>)
 8000796:	f001 ffc7 	bl	8002728 <HAL_UART_Transmit>
 800079a:	f04f 33ff 	mov.w	r3, #4294967295
 800079e:	2203      	movs	r2, #3
 80007a0:	492b      	ldr	r1, [pc, #172]	@ (8000850 <NEXTION_SendString+0x22c>)
 80007a2:	482a      	ldr	r0, [pc, #168]	@ (800084c <NEXTION_SendString+0x228>)
 80007a4:	f001 ffc0 	bl	8002728 <HAL_UART_Transmit>
 80007a8:	4938      	ldr	r1, [pc, #224]	@ (800088c <NEXTION_SendString+0x268>)
 80007aa:	a801      	add	r0, sp, #4
 80007ac:	f002 f8ea 	bl	8002984 <strcpy>
 80007b0:	f04f 33ff 	mov.w	r3, #4294967295
 80007b4:	220f      	movs	r2, #15
 80007b6:	e790      	b.n	80006da <NEXTION_SendString+0xb6>
 80007b8:	4835      	ldr	r0, [pc, #212]	@ (8000890 <NEXTION_SendString+0x26c>)
 80007ba:	4936      	ldr	r1, [pc, #216]	@ (8000894 <NEXTION_SendString+0x270>)
 80007bc:	4602      	mov	r2, r0
 80007be:	a801      	add	r0, sp, #4
 80007c0:	f002 f88a 	bl	80028d8 <siprintf>
 80007c4:	f04f 33ff 	mov.w	r3, #4294967295
 80007c8:	2210      	movs	r2, #16
 80007ca:	a901      	add	r1, sp, #4
 80007cc:	481f      	ldr	r0, [pc, #124]	@ (800084c <NEXTION_SendString+0x228>)
 80007ce:	f001 ffab 	bl	8002728 <HAL_UART_Transmit>
 80007d2:	f04f 33ff 	mov.w	r3, #4294967295
 80007d6:	2203      	movs	r2, #3
 80007d8:	491d      	ldr	r1, [pc, #116]	@ (8000850 <NEXTION_SendString+0x22c>)
 80007da:	481c      	ldr	r0, [pc, #112]	@ (800084c <NEXTION_SendString+0x228>)
 80007dc:	f001 ffa4 	bl	8002728 <HAL_UART_Transmit>
 80007e0:	492d      	ldr	r1, [pc, #180]	@ (8000898 <NEXTION_SendString+0x274>)
 80007e2:	a801      	add	r0, sp, #4
 80007e4:	f002 f8ce 	bl	8002984 <strcpy>
 80007e8:	f04f 33ff 	mov.w	r3, #4294967295
 80007ec:	220f      	movs	r2, #15
 80007ee:	a901      	add	r1, sp, #4
 80007f0:	4816      	ldr	r0, [pc, #88]	@ (800084c <NEXTION_SendString+0x228>)
 80007f2:	f001 ff99 	bl	8002728 <HAL_UART_Transmit>
 80007f6:	f04f 33ff 	mov.w	r3, #4294967295
 80007fa:	2203      	movs	r2, #3
 80007fc:	4914      	ldr	r1, [pc, #80]	@ (8000850 <NEXTION_SendString+0x22c>)
 80007fe:	4813      	ldr	r0, [pc, #76]	@ (800084c <NEXTION_SendString+0x228>)
 8000800:	f001 ff92 	bl	8002728 <HAL_UART_Transmit>
 8000804:	4925      	ldr	r1, [pc, #148]	@ (800089c <NEXTION_SendString+0x278>)
 8000806:	a801      	add	r0, sp, #4
 8000808:	f002 f8bc 	bl	8002984 <strcpy>
 800080c:	f04f 33ff 	mov.w	r3, #4294967295
 8000810:	220f      	movs	r2, #15
 8000812:	a901      	add	r1, sp, #4
 8000814:	480d      	ldr	r0, [pc, #52]	@ (800084c <NEXTION_SendString+0x228>)
 8000816:	f001 ff87 	bl	8002728 <HAL_UART_Transmit>
 800081a:	f04f 33ff 	mov.w	r3, #4294967295
 800081e:	2203      	movs	r2, #3
 8000820:	490b      	ldr	r1, [pc, #44]	@ (8000850 <NEXTION_SendString+0x22c>)
 8000822:	480a      	ldr	r0, [pc, #40]	@ (800084c <NEXTION_SendString+0x228>)
 8000824:	f001 ff80 	bl	8002728 <HAL_UART_Transmit>
 8000828:	491d      	ldr	r1, [pc, #116]	@ (80008a0 <NEXTION_SendString+0x27c>)
 800082a:	a801      	add	r0, sp, #4
 800082c:	f002 f8aa 	bl	8002984 <strcpy>
 8000830:	f04f 33ff 	mov.w	r3, #4294967295
 8000834:	2208      	movs	r2, #8
 8000836:	e750      	b.n	80006da <NEXTION_SendString+0xb6>
 8000838:	460b      	mov	r3, r1
 800083a:	4602      	mov	r2, r0
 800083c:	4919      	ldr	r1, [pc, #100]	@ (80008a4 <NEXTION_SendString+0x280>)
 800083e:	a801      	add	r0, sp, #4
 8000840:	f002 f84a 	bl	80028d8 <siprintf>
 8000844:	e72b      	b.n	800069e <NEXTION_SendString+0x7a>
 8000846:	bf00      	nop
 8000848:	0800324f 	.word	0x0800324f
 800084c:	200003fc 	.word	0x200003fc
 8000850:	20000024 	.word	0x20000024
 8000854:	08003255 	.word	0x08003255
 8000858:	080032b4 	.word	0x080032b4
 800085c:	0800326d 	.word	0x0800326d
 8000860:	08003285 	.word	0x08003285
 8000864:	0800329d 	.word	0x0800329d
 8000868:	20000356 	.word	0x20000356
 800086c:	080032cb 	.word	0x080032cb
 8000870:	080032d4 	.word	0x080032d4
 8000874:	2000035e 	.word	0x2000035e
 8000878:	080032dc 	.word	0x080032dc
 800087c:	080032ed 	.word	0x080032ed
 8000880:	200002c4 	.word	0x200002c4
 8000884:	080032f6 	.word	0x080032f6
 8000888:	0800330a 	.word	0x0800330a
 800088c:	0800331a 	.word	0x0800331a
 8000890:	08003240 	.word	0x08003240
 8000894:	0800332a 	.word	0x0800332a
 8000898:	0800333b 	.word	0x0800333b
 800089c:	0800334b 	.word	0x0800334b
 80008a0:	0800335b 	.word	0x0800335b
 80008a4:	08003364 	.word	0x08003364

080008a8 <MapValue>:
 80008a8:	b500      	push	{lr}
 80008aa:	4b1e      	ldr	r3, [pc, #120]	@ (8000924 <MapValue+0x7c>)
 80008ac:	781b      	ldrb	r3, [r3, #0]
 80008ae:	b08b      	sub	sp, #44	@ 0x2c
 80008b0:	2b00      	cmp	r3, #0
 80008b2:	d033      	beq.n	800091c <MapValue+0x74>
 80008b4:	2320      	movs	r3, #32
 80008b6:	221f      	movs	r2, #31
 80008b8:	2100      	movs	r1, #0
 80008ba:	a802      	add	r0, sp, #8
 80008bc:	9301      	str	r3, [sp, #4]
 80008be:	f002 f82d 	bl	800291c <memset>
 80008c2:	f000 f957 	bl	8000b74 <checkMapValue>
 80008c6:	b348      	cbz	r0, 800091c <MapValue+0x74>
 80008c8:	4917      	ldr	r1, [pc, #92]	@ (8000928 <MapValue+0x80>)
 80008ca:	a801      	add	r0, sp, #4
 80008cc:	f002 f85a 	bl	8002984 <strcpy>
 80008d0:	f04f 33ff 	mov.w	r3, #4294967295
 80008d4:	220d      	movs	r2, #13
 80008d6:	a901      	add	r1, sp, #4
 80008d8:	4814      	ldr	r0, [pc, #80]	@ (800092c <MapValue+0x84>)
 80008da:	f001 ff25 	bl	8002728 <HAL_UART_Transmit>
 80008de:	4914      	ldr	r1, [pc, #80]	@ (8000930 <MapValue+0x88>)
 80008e0:	4812      	ldr	r0, [pc, #72]	@ (800092c <MapValue+0x84>)
 80008e2:	f04f 33ff 	mov.w	r3, #4294967295
 80008e6:	2203      	movs	r2, #3
 80008e8:	f001 ff1e 	bl	8002728 <HAL_UART_Transmit>
 80008ec:	4b11      	ldr	r3, [pc, #68]	@ (8000934 <MapValue+0x8c>)
 80008ee:	4912      	ldr	r1, [pc, #72]	@ (8000938 <MapValue+0x90>)
 80008f0:	695b      	ldr	r3, [r3, #20]
 80008f2:	a801      	add	r0, sp, #4
 80008f4:	881a      	ldrh	r2, [r3, #0]
 80008f6:	f001 ffef 	bl	80028d8 <siprintf>
 80008fa:	f04f 33ff 	mov.w	r3, #4294967295
 80008fe:	b282      	uxth	r2, r0
 8000900:	a901      	add	r1, sp, #4
 8000902:	480a      	ldr	r0, [pc, #40]	@ (800092c <MapValue+0x84>)
 8000904:	f001 ff10 	bl	8002728 <HAL_UART_Transmit>
 8000908:	4909      	ldr	r1, [pc, #36]	@ (8000930 <MapValue+0x88>)
 800090a:	4808      	ldr	r0, [pc, #32]	@ (800092c <MapValue+0x84>)
 800090c:	f04f 33ff 	mov.w	r3, #4294967295
 8000910:	2203      	movs	r2, #3
 8000912:	f001 ff09 	bl	8002728 <HAL_UART_Transmit>
 8000916:	4809      	ldr	r0, [pc, #36]	@ (800093c <MapValue+0x94>)
 8000918:	f001 fb38 	bl	8001f8c <HAL_TIM_Base_Start_IT>
 800091c:	b00b      	add	sp, #44	@ 0x2c
 800091e:	f85d fb04 	ldr.w	pc, [sp], #4
 8000922:	bf00      	nop
 8000924:	2000035b 	.word	0x2000035b
 8000928:	0800336c 	.word	0x0800336c
 800092c:	200003fc 	.word	0x200003fc
 8000930:	20000024 	.word	0x20000024
 8000934:	20000000 	.word	0x20000000
 8000938:	0800337a 	.word	0x0800337a
 800093c:	20000364 	.word	0x20000364

08000940 <main>:
 8000940:	e92d 4ff0 	stmdb	sp!, {r4, r5, r6, r7, r8, r9, sl, fp, lr}
 8000944:	b08b      	sub	sp, #44	@ 0x2c
 8000946:	2320      	movs	r3, #32
 8000948:	2224      	movs	r2, #36	@ 0x24
 800094a:	2100      	movs	r1, #0
 800094c:	a801      	add	r0, sp, #4
 800094e:	9300      	str	r3, [sp, #0]
 8000950:	f001 ffe4 	bl	800291c <memset>
 8000954:	f000 fb52 	bl	8000ffc <HAL_Init>
 8000958:	f7ff fe36 	bl	80005c8 <SystemClock_Config>
 800095c:	f000 fab0 	bl	8000ec0 <MX_USART2_UART_Init>
 8000960:	f44f 70fa 	mov.w	r0, #500	@ 0x1f4
 8000964:	f000 fb6e 	bl	8001044 <HAL_Delay>
 8000968:	4969      	ldr	r1, [pc, #420]	@ (8000b10 <main+0x1d0>)
 800096a:	4e6a      	ldr	r6, [pc, #424]	@ (8000b14 <main+0x1d4>)
 800096c:	4668      	mov	r0, sp
 800096e:	f002 f809 	bl	8002984 <strcpy>
 8000972:	f04f 33ff 	mov.w	r3, #4294967295
 8000976:	220e      	movs	r2, #14
 8000978:	4669      	mov	r1, sp
 800097a:	4867      	ldr	r0, [pc, #412]	@ (8000b18 <main+0x1d8>)
 800097c:	f001 fed4 	bl	8002728 <HAL_UART_Transmit>
 8000980:	f04f 33ff 	mov.w	r3, #4294967295
 8000984:	4965      	ldr	r1, [pc, #404]	@ (8000b1c <main+0x1dc>)
 8000986:	4864      	ldr	r0, [pc, #400]	@ (8000b18 <main+0x1d8>)
 8000988:	2203      	movs	r2, #3
 800098a:	f001 fecd 	bl	8002728 <HAL_UART_Transmit>
 800098e:	f44f 60fa 	mov.w	r0, #2000	@ 0x7d0
 8000992:	f000 fb57 	bl	8001044 <HAL_Delay>
 8000996:	f7ff fd7d 	bl	8000494 <MX_GPIO_Init>
 800099a:	f7ff fc9d 	bl	80002d8 <MX_CAN_Init>
 800099e:	f000 fa8f 	bl	8000ec0 <MX_USART2_UART_Init>
 80009a2:	f000 f9b3 	bl	8000d0c <MX_TIM3_Init>
 80009a6:	f000 f979 	bl	8000c9c <MX_TIM2_Init>
 80009aa:	2200      	movs	r2, #0
 80009ac:	4611      	mov	r1, r2
 80009ae:	2017      	movs	r0, #23
 80009b0:	f000 fe6a 	bl	8001688 <HAL_NVIC_SetPriority>
 80009b4:	2017      	movs	r0, #23
 80009b6:	f000 fe99 	bl	80016ec <HAL_NVIC_EnableIRQ>
 80009ba:	2200      	movs	r2, #0
 80009bc:	4611      	mov	r1, r2
 80009be:	200a      	movs	r0, #10
 80009c0:	f000 fe62 	bl	8001688 <HAL_NVIC_SetPriority>
 80009c4:	200a      	movs	r0, #10
 80009c6:	f000 fe91 	bl	80016ec <HAL_NVIC_EnableIRQ>
 80009ca:	2200      	movs	r2, #0
 80009cc:	4611      	mov	r1, r2
 80009ce:	2014      	movs	r0, #20
 80009d0:	f000 fe5a 	bl	8001688 <HAL_NVIC_SetPriority>
 80009d4:	2014      	movs	r0, #20
 80009d6:	f000 fe89 	bl	80016ec <HAL_NVIC_EnableIRQ>
 80009da:	f7ff fc49 	bl	8000270 <CAN_setup>
 80009de:	2064      	movs	r0, #100	@ 0x64
 80009e0:	f000 fb30 	bl	8001044 <HAL_Delay>
 80009e4:	494a      	ldr	r1, [pc, #296]	@ (8000b10 <main+0x1d0>)
 80009e6:	4668      	mov	r0, sp
 80009e8:	f001 ffcc 	bl	8002984 <strcpy>
 80009ec:	f04f 33ff 	mov.w	r3, #4294967295
 80009f0:	220e      	movs	r2, #14
 80009f2:	4669      	mov	r1, sp
 80009f4:	4848      	ldr	r0, [pc, #288]	@ (8000b18 <main+0x1d8>)
 80009f6:	f001 fe97 	bl	8002728 <HAL_UART_Transmit>
 80009fa:	4948      	ldr	r1, [pc, #288]	@ (8000b1c <main+0x1dc>)
 80009fc:	4846      	ldr	r0, [pc, #280]	@ (8000b18 <main+0x1d8>)
 80009fe:	f04f 33ff 	mov.w	r3, #4294967295
 8000a02:	2203      	movs	r2, #3
 8000a04:	f001 fe90 	bl	8002728 <HAL_UART_Transmit>
 8000a08:	f000 fb16 	bl	8001038 <HAL_GetTick>
 8000a0c:	4b44      	ldr	r3, [pc, #272]	@ (8000b20 <main+0x1e0>)
 8000a0e:	4945      	ldr	r1, [pc, #276]	@ (8000b24 <main+0x1e4>)
 8000a10:	2201      	movs	r2, #1
 8000a12:	4668      	mov	r0, sp
 8000a14:	701a      	strb	r2, [r3, #0]
 8000a16:	f001 ffb5 	bl	8002984 <strcpy>
 8000a1a:	f04f 33ff 	mov.w	r3, #4294967295
 8000a1e:	2209      	movs	r2, #9
 8000a20:	4669      	mov	r1, sp
 8000a22:	483d      	ldr	r0, [pc, #244]	@ (8000b18 <main+0x1d8>)
 8000a24:	f001 fe80 	bl	8002728 <HAL_UART_Transmit>
 8000a28:	f04f 33ff 	mov.w	r3, #4294967295
 8000a2c:	2203      	movs	r2, #3
 8000a2e:	493b      	ldr	r1, [pc, #236]	@ (8000b1c <main+0x1dc>)
 8000a30:	4839      	ldr	r0, [pc, #228]	@ (8000b18 <main+0x1d8>)
 8000a32:	f001 fe79 	bl	8002728 <HAL_UART_Transmit>
 8000a36:	493c      	ldr	r1, [pc, #240]	@ (8000b28 <main+0x1e8>)
 8000a38:	4668      	mov	r0, sp
 8000a3a:	f001 ffa3 	bl	8002984 <strcpy>
 8000a3e:	f04f 33ff 	mov.w	r3, #4294967295
 8000a42:	220f      	movs	r2, #15
 8000a44:	4669      	mov	r1, sp
 8000a46:	4834      	ldr	r0, [pc, #208]	@ (8000b18 <main+0x1d8>)
 8000a48:	f001 fe6e 	bl	8002728 <HAL_UART_Transmit>
 8000a4c:	f04f 33ff 	mov.w	r3, #4294967295
 8000a50:	2203      	movs	r2, #3
 8000a52:	4932      	ldr	r1, [pc, #200]	@ (8000b1c <main+0x1dc>)
 8000a54:	4830      	ldr	r0, [pc, #192]	@ (8000b18 <main+0x1d8>)
 8000a56:	f001 fe67 	bl	8002728 <HAL_UART_Transmit>
 8000a5a:	4934      	ldr	r1, [pc, #208]	@ (8000b2c <main+0x1ec>)
 8000a5c:	4668      	mov	r0, sp
 8000a5e:	f001 ff91 	bl	8002984 <strcpy>
 8000a62:	f04f 33ff 	mov.w	r3, #4294967295
 8000a66:	220f      	movs	r2, #15
 8000a68:	4669      	mov	r1, sp
 8000a6a:	482b      	ldr	r0, [pc, #172]	@ (8000b18 <main+0x1d8>)
 8000a6c:	f001 fe5c 	bl	8002728 <HAL_UART_Transmit>
 8000a70:	492a      	ldr	r1, [pc, #168]	@ (8000b1c <main+0x1dc>)
 8000a72:	4829      	ldr	r0, [pc, #164]	@ (8000b18 <main+0x1d8>)
 8000a74:	f04f 33ff 	mov.w	r3, #4294967295
 8000a78:	2203      	movs	r2, #3
 8000a7a:	f001 fe55 	bl	8002728 <HAL_UART_Transmit>
 8000a7e:	f04f 0800 	mov.w	r8, #0
 8000a82:	f000 fad9 	bl	8001038 <HAL_GetTick>
 8000a86:	7833      	ldrb	r3, [r6, #0]
 8000a88:	2b0a      	cmp	r3, #10
 8000a8a:	4b29      	ldr	r3, [pc, #164]	@ (8000b30 <main+0x1f0>)
 8000a8c:	bf08      	it	eq
 8000a8e:	f886 8000 	strbeq.w	r8, [r6]
 8000a92:	781b      	ldrb	r3, [r3, #0]
 8000a94:	4605      	mov	r5, r0
 8000a96:	f003 04ff 	and.w	r4, r3, #255	@ 0xff
 8000a9a:	bb4b      	cbnz	r3, 8000af0 <main+0x1b0>
 8000a9c:	f8df 90a0 	ldr.w	r9, [pc, #160]	@ 8000b40 <main+0x200>
 8000aa0:	4f24      	ldr	r7, [pc, #144]	@ (8000b34 <main+0x1f4>)
 8000aa2:	f8df a0a0 	ldr.w	sl, [pc, #160]	@ 8000b44 <main+0x204>
 8000aa6:	f8df b0a0 	ldr.w	fp, [pc, #160]	@ 8000b48 <main+0x208>
 8000aaa:	f819 3b01 	ldrb.w	r3, [r9], #1
 8000aae:	2b01      	cmp	r3, #1
 8000ab0:	d004      	beq.n	8000abc <main+0x17c>
 8000ab2:	683b      	ldr	r3, [r7, #0]
 8000ab4:	1aeb      	subs	r3, r5, r3
 8000ab6:	f5b3 6ffa 	cmp.w	r3, #2000	@ 0x7d0
 8000aba:	d914      	bls.n	8000ae6 <main+0x1a6>
 8000abc:	2c05      	cmp	r4, #5
 8000abe:	d101      	bne.n	8000ac4 <main+0x184>
 8000ac0:	f7ff fef2 	bl	80008a8 <MapValue>
 8000ac4:	f85a 3024 	ldr.w	r3, [sl, r4, lsl #2]
 8000ac8:	f809 8c01 	strb.w	r8, [r9, #-1]
 8000acc:	2032      	movs	r0, #50	@ 0x32
 8000ace:	8819      	ldrh	r1, [r3, #0]
 8000ad0:	4622      	mov	r2, r4
 8000ad2:	fb00 b004 	mla	r0, r0, r4, fp
 8000ad6:	f7ff fda5 	bl	8000624 <NEXTION_SendString>
 8000ada:	f000 faad 	bl	8001038 <HAL_GetTick>
 8000ade:	6038      	str	r0, [r7, #0]
 8000ae0:	2001      	movs	r0, #1
 8000ae2:	f000 faaf 	bl	8001044 <HAL_Delay>
 8000ae6:	3401      	adds	r4, #1
 8000ae8:	2c09      	cmp	r4, #9
 8000aea:	f107 0704 	add.w	r7, r7, #4
 8000aee:	d1dc      	bne.n	8000aaa <main+0x16a>
 8000af0:	4b11      	ldr	r3, [pc, #68]	@ (8000b38 <main+0x1f8>)
 8000af2:	781a      	ldrb	r2, [r3, #0]
 8000af4:	b93a      	cbnz	r2, 8000b06 <main+0x1c6>
 8000af6:	4a11      	ldr	r2, [pc, #68]	@ (8000b3c <main+0x1fc>)
 8000af8:	6812      	ldr	r2, [r2, #0]
 8000afa:	1aad      	subs	r5, r5, r2
 8000afc:	f5b5 7f2f 	cmp.w	r5, #700	@ 0x2bc
 8000b00:	bf84      	itt	hi
 8000b02:	2201      	movhi	r2, #1
 8000b04:	701a      	strbhi	r2, [r3, #0]
 8000b06:	7833      	ldrb	r3, [r6, #0]
 8000b08:	3301      	adds	r3, #1
 8000b0a:	7033      	strb	r3, [r6, #0]
 8000b0c:	e7b9      	b.n	8000a82 <main+0x142>
 8000b0e:	bf00      	nop
 8000b10:	0800338c 	.word	0x0800338c
 8000b14:	2000028c 	.word	0x2000028c
 8000b18:	200003fc 	.word	0x200003fc
 8000b1c:	20000024 	.word	0x20000024
 8000b20:	2000035b 	.word	0x2000035b
 8000b24:	0800339b 	.word	0x0800339b
 8000b28:	0800333b 	.word	0x0800333b
 8000b2c:	0800334b 	.word	0x0800334b
 8000b30:	2000035a 	.word	0x2000035a
 8000b34:	20000290 	.word	0x20000290
 8000b38:	200001e9 	.word	0x200001e9
 8000b3c:	200002c0 	.word	0x200002c0
 8000b40:	200002b4 	.word	0x200002b4
 8000b44:	20000000 	.word	0x20000000
 8000b48:	20000027 	.word	0x20000027

08000b4c <system_reset>:
 8000b4c:	b672      	cpsid	i
 8000b4e:	f3bf 8f4f 	dsb	sy
 8000b52:	4905      	ldr	r1, [pc, #20]	@ (8000b68 <system_reset+0x1c>)
 8000b54:	4b05      	ldr	r3, [pc, #20]	@ (8000b6c <system_reset+0x20>)
 8000b56:	68ca      	ldr	r2, [r1, #12]
 8000b58:	f402 62e0 	and.w	r2, r2, #1792	@ 0x700
 8000b5c:	4313      	orrs	r3, r2
 8000b5e:	60cb      	str	r3, [r1, #12]
 8000b60:	f3bf 8f4f 	dsb	sy
 8000b64:	bf00      	nop
 8000b66:	e7fd      	b.n	8000b64 <system_reset+0x18>
 8000b68:	e000ed00 	.word	0xe000ed00
 8000b6c:	05fa0004 	.word	0x05fa0004

08000b70 <Error_Handler>:
 8000b70:	b672      	cpsid	i
 8000b72:	e7fe      	b.n	8000b72 <Error_Handler+0x2>

08000b74 <checkMapValue>:
 8000b74:	b538      	push	{r3, r4, r5, lr}
 8000b76:	4b0e      	ldr	r3, [pc, #56]	@ (8000bb0 <checkMapValue+0x3c>)
 8000b78:	781a      	ldrb	r2, [r3, #0]
 8000b7a:	f002 00ff 	and.w	r0, r2, #255	@ 0xff
 8000b7e:	b9aa      	cbnz	r2, 8000bac <checkMapValue+0x38>
 8000b80:	4a0c      	ldr	r2, [pc, #48]	@ (8000bb4 <checkMapValue+0x40>)
 8000b82:	4c0d      	ldr	r4, [pc, #52]	@ (8000bb8 <checkMapValue+0x44>)
 8000b84:	6951      	ldr	r1, [r2, #20]
 8000b86:	7824      	ldrb	r4, [r4, #0]
 8000b88:	880d      	ldrh	r5, [r1, #0]
 8000b8a:	42a5      	cmp	r5, r4
 8000b8c:	d00d      	beq.n	8000baa <checkMapValue+0x36>
 8000b8e:	800c      	strh	r4, [r1, #0]
 8000b90:	490a      	ldr	r1, [pc, #40]	@ (8000bbc <checkMapValue+0x48>)
 8000b92:	6a12      	ldr	r2, [r2, #32]
 8000b94:	7008      	strb	r0, [r1, #0]
 8000b96:	490a      	ldr	r1, [pc, #40]	@ (8000bc0 <checkMapValue+0x4c>)
 8000b98:	480a      	ldr	r0, [pc, #40]	@ (8000bc4 <checkMapValue+0x50>)
 8000b9a:	2401      	movs	r4, #1
 8000b9c:	714c      	strb	r4, [r1, #5]
 8000b9e:	701c      	strb	r4, [r3, #0]
 8000ba0:	4909      	ldr	r1, [pc, #36]	@ (8000bc8 <checkMapValue+0x54>)
 8000ba2:	4b0a      	ldr	r3, [pc, #40]	@ (8000bcc <checkMapValue+0x58>)
 8000ba4:	f000 fb76 	bl	8001294 <HAL_CAN_AddTxMessage>
 8000ba8:	4620      	mov	r0, r4
 8000baa:	bd38      	pop	{r3, r4, r5, pc}
 8000bac:	2000      	movs	r0, #0
 8000bae:	e7fc      	b.n	8000baa <checkMapValue+0x36>
 8000bb0:	2000035a 	.word	0x2000035a
 8000bb4:	20000000 	.word	0x20000000
 8000bb8:	200002c6 	.word	0x200002c6
 8000bbc:	200002c5 	.word	0x200002c5
 8000bc0:	200002b4 	.word	0x200002b4
 8000bc4:	20000264 	.word	0x20000264
 8000bc8:	20000324 	.word	0x20000324
 8000bcc:	200002d4 	.word	0x200002d4

08000bd0 <HAL_MspInit>:
 8000bd0:	4b0a      	ldr	r3, [pc, #40]	@ (8000bfc <HAL_MspInit+0x2c>)
 8000bd2:	699a      	ldr	r2, [r3, #24]
 8000bd4:	f042 0201 	orr.w	r2, r2, #1
 8000bd8:	b082      	sub	sp, #8
 8000bda:	619a      	str	r2, [r3, #24]
 8000bdc:	699a      	ldr	r2, [r3, #24]
 8000bde:	f002 0201 	and.w	r2, r2, #1
 8000be2:	9200      	str	r2, [sp, #0]
 8000be4:	9a00      	ldr	r2, [sp, #0]
 8000be6:	69da      	ldr	r2, [r3, #28]
 8000be8:	f042 5280 	orr.w	r2, r2, #268435456	@ 0x10000000
 8000bec:	61da      	str	r2, [r3, #28]
 8000bee:	69db      	ldr	r3, [r3, #28]
 8000bf0:	f003 5380 	and.w	r3, r3, #268435456	@ 0x10000000
 8000bf4:	9301      	str	r3, [sp, #4]
 8000bf6:	9b01      	ldr	r3, [sp, #4]
 8000bf8:	b002      	add	sp, #8
 8000bfa:	4770      	bx	lr
 8000bfc:	40021000 	.word	0x40021000

08000c00 <NMI_Handler>:
 8000c00:	e7fe      	b.n	8000c00 <NMI_Handler>

08000c02 <HardFault_Handler>:
 8000c02:	e7fe      	b.n	8000c02 <HardFault_Handler>

08000c04 <MemManage_Handler>:
 8000c04:	e7fe      	b.n	8000c04 <MemManage_Handler>

08000c06 <BusFault_Handler>:
 8000c06:	e7fe      	b.n	8000c06 <BusFault_Handler>

08000c08 <UsageFault_Handler>:
 8000c08:	e7fe      	b.n	8000c08 <UsageFault_Handler>

08000c0a <SVC_Handler>:
 8000c0a:	4770      	bx	lr

08000c0c <DebugMon_Handler>:
 8000c0c:	4770      	bx	lr

08000c0e <PendSV_Handler>:
 8000c0e:	4770      	bx	lr

08000c10 <SysTick_Handler>:
 8000c10:	f000 ba06 	b.w	8001020 <HAL_IncTick>

08000c14 <EXTI4_IRQHandler>:
 8000c14:	2010      	movs	r0, #16
 8000c16:	f000 be55 	b.w	80018c4 <HAL_GPIO_EXTI_IRQHandler>
	...

08000c1c <CAN_RX0_IRQHandler>:
 8000c1c:	4801      	ldr	r0, [pc, #4]	@ (8000c24 <CAN_RX0_IRQHandler+0x8>)
 8000c1e:	f000 bc1d 	b.w	800145c <HAL_CAN_IRQHandler>
 8000c22:	bf00      	nop
 8000c24:	20000264 	.word	0x20000264

08000c28 <EXTI9_5_IRQHandler>:
 8000c28:	2020      	movs	r0, #32
 8000c2a:	f000 be4b 	b.w	80018c4 <HAL_GPIO_EXTI_IRQHandler>
	...

08000c30 <TIM2_IRQHandler>:
 8000c30:	4801      	ldr	r0, [pc, #4]	@ (8000c38 <TIM2_IRQHandler+0x8>)
 8000c32:	f001 b9f6 	b.w	8002022 <HAL_TIM_IRQHandler>
 8000c36:	bf00      	nop
 8000c38:	200003b0 	.word	0x200003b0

08000c3c <TIM3_IRQHandler>:
 8000c3c:	4801      	ldr	r0, [pc, #4]	@ (8000c44 <TIM3_IRQHandler+0x8>)
 8000c3e:	f001 b9f0 	b.w	8002022 <HAL_TIM_IRQHandler>
 8000c42:	bf00      	nop
 8000c44:	20000364 	.word	0x20000364

08000c48 <_sbrk>:
 8000c48:	4a0b      	ldr	r2, [pc, #44]	@ (8000c78 <_sbrk+0x30>)
 8000c4a:	6811      	ldr	r1, [r2, #0]
 8000c4c:	b510      	push	{r4, lr}
 8000c4e:	4603      	mov	r3, r0
 8000c50:	b909      	cbnz	r1, 8000c56 <_sbrk+0xe>
 8000c52:	490a      	ldr	r1, [pc, #40]	@ (8000c7c <_sbrk+0x34>)
 8000c54:	6011      	str	r1, [r2, #0]
 8000c56:	6810      	ldr	r0, [r2, #0]
 8000c58:	4909      	ldr	r1, [pc, #36]	@ (8000c80 <_sbrk+0x38>)
 8000c5a:	4c0a      	ldr	r4, [pc, #40]	@ (8000c84 <_sbrk+0x3c>)
 8000c5c:	4403      	add	r3, r0
 8000c5e:	1b09      	subs	r1, r1, r4
 8000c60:	428b      	cmp	r3, r1
 8000c62:	d906      	bls.n	8000c72 <_sbrk+0x2a>
 8000c64:	f001 fe62 	bl	800292c <__errno>
 8000c68:	230c      	movs	r3, #12
 8000c6a:	6003      	str	r3, [r0, #0]
 8000c6c:	f04f 30ff 	mov.w	r0, #4294967295
 8000c70:	bd10      	pop	{r4, pc}
 8000c72:	6013      	str	r3, [r2, #0]
 8000c74:	e7fc      	b.n	8000c70 <_sbrk+0x28>
 8000c76:	bf00      	nop
 8000c78:	20000360 	.word	0x20000360
 8000c7c:	200005d0 	.word	0x200005d0
 8000c80:	20003000 	.word	0x20003000
 8000c84:	00000400 	.word	0x00000400

08000c88 <SystemInit>:
 8000c88:	4a03      	ldr	r2, [pc, #12]	@ (8000c98 <SystemInit+0x10>)
 8000c8a:	f8d2 3088 	ldr.w	r3, [r2, #136]	@ 0x88
 8000c8e:	f443 0370 	orr.w	r3, r3, #15728640	@ 0xf00000
 8000c92:	f8c2 3088 	str.w	r3, [r2, #136]	@ 0x88
 8000c96:	4770      	bx	lr
 8000c98:	e000ed00 	.word	0xe000ed00

08000c9c <MX_TIM2_Init>:
 8000c9c:	b500      	push	{lr}
 8000c9e:	2210      	movs	r2, #16
 8000ca0:	b089      	sub	sp, #36	@ 0x24
 8000ca2:	2100      	movs	r1, #0
 8000ca4:	eb0d 0002 	add.w	r0, sp, r2
 8000ca8:	f001 fe38 	bl	800291c <memset>
 8000cac:	4816      	ldr	r0, [pc, #88]	@ (8000d08 <MX_TIM2_Init+0x6c>)
 8000cae:	f241 22bf 	movw	r2, #4799	@ 0x12bf
 8000cb2:	f04f 4180 	mov.w	r1, #1073741824	@ 0x40000000
 8000cb6:	2300      	movs	r3, #0
 8000cb8:	e9c0 1200 	strd	r1, r2, [r0]
 8000cbc:	f644 621f 	movw	r2, #19999	@ 0x4e1f
 8000cc0:	e9cd 3301 	strd	r3, r3, [sp, #4]
 8000cc4:	e9c0 2303 	strd	r2, r3, [r0, #12]
 8000cc8:	9303      	str	r3, [sp, #12]
 8000cca:	6083      	str	r3, [r0, #8]
 8000ccc:	2380      	movs	r3, #128	@ 0x80
 8000cce:	6183      	str	r3, [r0, #24]
 8000cd0:	f001 fa90 	bl	80021f4 <HAL_TIM_Base_Init>
 8000cd4:	b108      	cbz	r0, 8000cda <MX_TIM2_Init+0x3e>
 8000cd6:	f7ff ff4b 	bl	8000b70 <Error_Handler>
 8000cda:	f44f 5380 	mov.w	r3, #4096	@ 0x1000
 8000cde:	480a      	ldr	r0, [pc, #40]	@ (8000d08 <MX_TIM2_Init+0x6c>)
 8000ce0:	9304      	str	r3, [sp, #16]
 8000ce2:	a904      	add	r1, sp, #16
 8000ce4:	f001 faee 	bl	80022c4 <HAL_TIM_ConfigClockSource>
 8000ce8:	b108      	cbz	r0, 8000cee <MX_TIM2_Init+0x52>
 8000cea:	f7ff ff41 	bl	8000b70 <Error_Handler>
 8000cee:	2300      	movs	r3, #0
 8000cf0:	4805      	ldr	r0, [pc, #20]	@ (8000d08 <MX_TIM2_Init+0x6c>)
 8000cf2:	9301      	str	r3, [sp, #4]
 8000cf4:	a901      	add	r1, sp, #4
 8000cf6:	9303      	str	r3, [sp, #12]
 8000cf8:	f001 fb7e 	bl	80023f8 <HAL_TIMEx_MasterConfigSynchronization>
 8000cfc:	b108      	cbz	r0, 8000d02 <MX_TIM2_Init+0x66>
 8000cfe:	f7ff ff37 	bl	8000b70 <Error_Handler>
 8000d02:	b009      	add	sp, #36	@ 0x24
 8000d04:	f85d fb04 	ldr.w	pc, [sp], #4
 8000d08:	200003b0 	.word	0x200003b0

08000d0c <MX_TIM3_Init>:
 8000d0c:	b500      	push	{lr}
 8000d0e:	2210      	movs	r2, #16
 8000d10:	b089      	sub	sp, #36	@ 0x24
 8000d12:	2100      	movs	r1, #0
 8000d14:	eb0d 0002 	add.w	r0, sp, r2
 8000d18:	f001 fe00 	bl	800291c <memset>
 8000d1c:	4819      	ldr	r0, [pc, #100]	@ (8000d84 <MX_TIM3_Init+0x78>)
 8000d1e:	491a      	ldr	r1, [pc, #104]	@ (8000d88 <MX_TIM3_Init+0x7c>)
 8000d20:	f241 22bf 	movw	r2, #4799	@ 0x12bf
 8000d24:	2300      	movs	r3, #0
 8000d26:	e9c0 1200 	strd	r1, r2, [r0]
 8000d2a:	f644 621f 	movw	r2, #19999	@ 0x4e1f
 8000d2e:	e9cd 3301 	strd	r3, r3, [sp, #4]
 8000d32:	e9c0 2303 	strd	r2, r3, [r0, #12]
 8000d36:	9303      	str	r3, [sp, #12]
 8000d38:	6083      	str	r3, [r0, #8]
 8000d3a:	2380      	movs	r3, #128	@ 0x80
 8000d3c:	6183      	str	r3, [r0, #24]
 8000d3e:	f001 fa59 	bl	80021f4 <HAL_TIM_Base_Init>
 8000d42:	b108      	cbz	r0, 8000d48 <MX_TIM3_Init+0x3c>
 8000d44:	f7ff ff14 	bl	8000b70 <Error_Handler>
 8000d48:	f44f 5380 	mov.w	r3, #4096	@ 0x1000
 8000d4c:	480d      	ldr	r0, [pc, #52]	@ (8000d84 <MX_TIM3_Init+0x78>)
 8000d4e:	9304      	str	r3, [sp, #16]
 8000d50:	a904      	add	r1, sp, #16
 8000d52:	f001 fab7 	bl	80022c4 <HAL_TIM_ConfigClockSource>
 8000d56:	b108      	cbz	r0, 8000d5c <MX_TIM3_Init+0x50>
 8000d58:	f7ff ff0a 	bl	8000b70 <Error_Handler>
 8000d5c:	4809      	ldr	r0, [pc, #36]	@ (8000d84 <MX_TIM3_Init+0x78>)
 8000d5e:	2108      	movs	r1, #8
 8000d60:	f001 fa78 	bl	8002254 <HAL_TIM_OnePulse_Init>
 8000d64:	b108      	cbz	r0, 8000d6a <MX_TIM3_Init+0x5e>
 8000d66:	f7ff ff03 	bl	8000b70 <Error_Handler>
 8000d6a:	2300      	movs	r3, #0
 8000d6c:	4805      	ldr	r0, [pc, #20]	@ (8000d84 <MX_TIM3_Init+0x78>)
 8000d6e:	9301      	str	r3, [sp, #4]
 8000d70:	a901      	add	r1, sp, #4
 8000d72:	9303      	str	r3, [sp, #12]
 8000d74:	f001 fb40 	bl	80023f8 <HAL_TIMEx_MasterConfigSynchronization>
 8000d78:	b108      	cbz	r0, 8000d7e <MX_TIM3_Init+0x72>
 8000d7a:	f7ff fef9 	bl	8000b70 <Error_Handler>
 8000d7e:	b009      	add	sp, #36	@ 0x24
 8000d80:	f85d fb04 	ldr.w	pc, [sp], #4
 8000d84:	20000364 	.word	0x20000364
 8000d88:	40000400 	.word	0x40000400

08000d8c <HAL_TIM_Base_MspInit>:
 8000d8c:	6803      	ldr	r3, [r0, #0]
 8000d8e:	f1b3 4f80 	cmp.w	r3, #1073741824	@ 0x40000000
 8000d92:	b507      	push	{r0, r1, r2, lr}
 8000d94:	d115      	bne.n	8000dc2 <HAL_TIM_Base_MspInit+0x36>
 8000d96:	f503 3304 	add.w	r3, r3, #135168	@ 0x21000
 8000d9a:	201c      	movs	r0, #28
 8000d9c:	69da      	ldr	r2, [r3, #28]
 8000d9e:	f042 0201 	orr.w	r2, r2, #1
 8000da2:	61da      	str	r2, [r3, #28]
 8000da4:	69db      	ldr	r3, [r3, #28]
 8000da6:	2200      	movs	r2, #0
 8000da8:	f003 0301 	and.w	r3, r3, #1
 8000dac:	9300      	str	r3, [sp, #0]
 8000dae:	4611      	mov	r1, r2
 8000db0:	9b00      	ldr	r3, [sp, #0]
 8000db2:	f000 fc69 	bl	8001688 <HAL_NVIC_SetPriority>
 8000db6:	201c      	movs	r0, #28
 8000db8:	b003      	add	sp, #12
 8000dba:	f85d eb04 	ldr.w	lr, [sp], #4
 8000dbe:	f000 bc95 	b.w	80016ec <HAL_NVIC_EnableIRQ>
 8000dc2:	4a0b      	ldr	r2, [pc, #44]	@ (8000df0 <HAL_TIM_Base_MspInit+0x64>)
 8000dc4:	4293      	cmp	r3, r2
 8000dc6:	d110      	bne.n	8000dea <HAL_TIM_Base_MspInit+0x5e>
 8000dc8:	4b0a      	ldr	r3, [pc, #40]	@ (8000df4 <HAL_TIM_Base_MspInit+0x68>)
 8000dca:	69da      	ldr	r2, [r3, #28]
 8000dcc:	f042 0202 	orr.w	r2, r2, #2
 8000dd0:	61da      	str	r2, [r3, #28]
 8000dd2:	69db      	ldr	r3, [r3, #28]
 8000dd4:	2200      	movs	r2, #0
 8000dd6:	f003 0302 	and.w	r3, r3, #2
 8000dda:	9301      	str	r3, [sp, #4]
 8000ddc:	201d      	movs	r0, #29
 8000dde:	4611      	mov	r1, r2
 8000de0:	9b01      	ldr	r3, [sp, #4]
 8000de2:	f000 fc51 	bl	8001688 <HAL_NVIC_SetPriority>
 8000de6:	201d      	movs	r0, #29
 8000de8:	e7e6      	b.n	8000db8 <HAL_TIM_Base_MspInit+0x2c>
 8000dea:	b003      	add	sp, #12
 8000dec:	f85d fb04 	ldr.w	pc, [sp], #4
 8000df0:	40000400 	.word	0x40000400
 8000df4:	40021000 	.word	0x40021000

08000df8 <HAL_TIM_PeriodElapsedCallback>:
 8000df8:	b510      	push	{r4, lr}
 8000dfa:	4b24      	ldr	r3, [pc, #144]	@ (8000e8c <HAL_TIM_PeriodElapsedCallback+0x94>)
 8000dfc:	781b      	ldrb	r3, [r3, #0]
 8000dfe:	b088      	sub	sp, #32
 8000e00:	4604      	mov	r4, r0
 8000e02:	2b00      	cmp	r3, #0
 8000e04:	d040      	beq.n	8000e88 <HAL_TIM_PeriodElapsedCallback+0x90>
 8000e06:	2320      	movs	r3, #32
 8000e08:	221a      	movs	r2, #26
 8000e0a:	2100      	movs	r1, #0
 8000e0c:	a801      	add	r0, sp, #4
 8000e0e:	9300      	str	r3, [sp, #0]
 8000e10:	f001 fd84 	bl	800291c <memset>
 8000e14:	6822      	ldr	r2, [r4, #0]
 8000e16:	4b1e      	ldr	r3, [pc, #120]	@ (8000e90 <HAL_TIM_PeriodElapsedCallback+0x98>)
 8000e18:	429a      	cmp	r2, r3
 8000e1a:	d11a      	bne.n	8000e52 <HAL_TIM_PeriodElapsedCallback+0x5a>
 8000e1c:	491d      	ldr	r1, [pc, #116]	@ (8000e94 <HAL_TIM_PeriodElapsedCallback+0x9c>)
 8000e1e:	4668      	mov	r0, sp
 8000e20:	f001 fdb0 	bl	8002984 <strcpy>
 8000e24:	f04f 33ff 	mov.w	r3, #4294967295
 8000e28:	2209      	movs	r2, #9
 8000e2a:	4669      	mov	r1, sp
 8000e2c:	481a      	ldr	r0, [pc, #104]	@ (8000e98 <HAL_TIM_PeriodElapsedCallback+0xa0>)
 8000e2e:	f001 fc7b 	bl	8002728 <HAL_UART_Transmit>
 8000e32:	f04f 33ff 	mov.w	r3, #4294967295
 8000e36:	2203      	movs	r2, #3
 8000e38:	4918      	ldr	r1, [pc, #96]	@ (8000e9c <HAL_TIM_PeriodElapsedCallback+0xa4>)
 8000e3a:	4817      	ldr	r0, [pc, #92]	@ (8000e98 <HAL_TIM_PeriodElapsedCallback+0xa0>)
 8000e3c:	f001 fc74 	bl	8002728 <HAL_UART_Transmit>
 8000e40:	4817      	ldr	r0, [pc, #92]	@ (8000ea0 <HAL_TIM_PeriodElapsedCallback+0xa8>)
 8000e42:	f001 f8d1 	bl	8001fe8 <HAL_TIM_Base_Stop_IT>
 8000e46:	4b17      	ldr	r3, [pc, #92]	@ (8000ea4 <HAL_TIM_PeriodElapsedCallback+0xac>)
 8000e48:	2201      	movs	r2, #1
 8000e4a:	715a      	strb	r2, [r3, #5]
 8000e4c:	4b16      	ldr	r3, [pc, #88]	@ (8000ea8 <HAL_TIM_PeriodElapsedCallback+0xb0>)
 8000e4e:	2200      	movs	r2, #0
 8000e50:	701a      	strb	r2, [r3, #0]
 8000e52:	6823      	ldr	r3, [r4, #0]
 8000e54:	f1b3 4f80 	cmp.w	r3, #1073741824	@ 0x40000000
 8000e58:	d116      	bne.n	8000e88 <HAL_TIM_PeriodElapsedCallback+0x90>
 8000e5a:	4c14      	ldr	r4, [pc, #80]	@ (8000eac <HAL_TIM_PeriodElapsedCallback+0xb4>)
 8000e5c:	7823      	ldrb	r3, [r4, #0]
 8000e5e:	b19b      	cbz	r3, 8000e88 <HAL_TIM_PeriodElapsedCallback+0x90>
 8000e60:	f000 f8ea 	bl	8001038 <HAL_GetTick>
 8000e64:	4b12      	ldr	r3, [pc, #72]	@ (8000eb0 <HAL_TIM_PeriodElapsedCallback+0xb8>)
 8000e66:	881b      	ldrh	r3, [r3, #0]
 8000e68:	1ac0      	subs	r0, r0, r3
 8000e6a:	f5b0 6ffa 	cmp.w	r0, #2000	@ 0x7d0
 8000e6e:	d90b      	bls.n	8000e88 <HAL_TIM_PeriodElapsedCallback+0x90>
 8000e70:	4810      	ldr	r0, [pc, #64]	@ (8000eb4 <HAL_TIM_PeriodElapsedCallback+0xbc>)
 8000e72:	f001 f8b9 	bl	8001fe8 <HAL_TIM_Base_Stop_IT>
 8000e76:	220c      	movs	r2, #12
 8000e78:	480f      	ldr	r0, [pc, #60]	@ (8000eb8 <HAL_TIM_PeriodElapsedCallback+0xc0>)
 8000e7a:	2100      	movs	r1, #0
 8000e7c:	f7ff fbd2 	bl	8000624 <NEXTION_SendString>
 8000e80:	4a0e      	ldr	r2, [pc, #56]	@ (8000ebc <HAL_TIM_PeriodElapsedCallback+0xc4>)
 8000e82:	2300      	movs	r3, #0
 8000e84:	7023      	strb	r3, [r4, #0]
 8000e86:	7013      	strb	r3, [r2, #0]
 8000e88:	b008      	add	sp, #32
 8000e8a:	bd10      	pop	{r4, pc}
 8000e8c:	2000035b 	.word	0x2000035b
 8000e90:	40000400 	.word	0x40000400
 8000e94:	0800339b 	.word	0x0800339b
 8000e98:	200003fc 	.word	0x200003fc
 8000e9c:	20000024 	.word	0x20000024
 8000ea0:	20000364 	.word	0x20000364
 8000ea4:	200002b4 	.word	0x200002b4
 8000ea8:	2000035a 	.word	0x2000035a
 8000eac:	2000035e 	.word	0x2000035e
 8000eb0:	2000035c 	.word	0x2000035c
 8000eb4:	200003b0 	.word	0x200003b0
 8000eb8:	08003240 	.word	0x08003240
 8000ebc:	200002c4 	.word	0x200002c4

08000ec0 <MX_USART2_UART_Init>:
 8000ec0:	480c      	ldr	r0, [pc, #48]	@ (8000ef4 <MX_USART2_UART_Init+0x34>)
 8000ec2:	4a0d      	ldr	r2, [pc, #52]	@ (8000ef8 <MX_USART2_UART_Init+0x38>)
 8000ec4:	b508      	push	{r3, lr}
 8000ec6:	f44f 33e1 	mov.w	r3, #115200	@ 0x1c200
 8000eca:	e9c0 2300 	strd	r2, r3, [r0]
 8000ece:	2300      	movs	r3, #0
 8000ed0:	220c      	movs	r2, #12
 8000ed2:	e9c0 3302 	strd	r3, r3, [r0, #8]
 8000ed6:	e9c0 2305 	strd	r2, r3, [r0, #20]
 8000eda:	e9c0 3307 	strd	r3, r3, [r0, #28]
 8000ede:	6103      	str	r3, [r0, #16]
 8000ee0:	6243      	str	r3, [r0, #36]	@ 0x24
 8000ee2:	f001 fccb 	bl	800287c <HAL_UART_Init>
 8000ee6:	b118      	cbz	r0, 8000ef0 <MX_USART2_UART_Init+0x30>
 8000ee8:	e8bd 4008 	ldmia.w	sp!, {r3, lr}
 8000eec:	f7ff be40 	b.w	8000b70 <Error_Handler>
 8000ef0:	bd08      	pop	{r3, pc}
 8000ef2:	bf00      	nop
 8000ef4:	200003fc 	.word	0x200003fc
 8000ef8:	40004400 	.word	0x40004400

08000efc <HAL_UART_MspInit>:
 8000efc:	b510      	push	{r4, lr}
 8000efe:	4604      	mov	r4, r0
 8000f00:	b088      	sub	sp, #32
 8000f02:	2214      	movs	r2, #20
 8000f04:	2100      	movs	r1, #0
 8000f06:	a803      	add	r0, sp, #12
 8000f08:	f001 fd08 	bl	800291c <memset>
 8000f0c:	6822      	ldr	r2, [r4, #0]
 8000f0e:	4b13      	ldr	r3, [pc, #76]	@ (8000f5c <HAL_UART_MspInit+0x60>)
 8000f10:	429a      	cmp	r2, r3
 8000f12:	d120      	bne.n	8000f56 <HAL_UART_MspInit+0x5a>
 8000f14:	f503 33e6 	add.w	r3, r3, #117760	@ 0x1cc00
 8000f18:	2103      	movs	r1, #3
 8000f1a:	69da      	ldr	r2, [r3, #28]
 8000f1c:	f442 3200 	orr.w	r2, r2, #131072	@ 0x20000
 8000f20:	61da      	str	r2, [r3, #28]
 8000f22:	69da      	ldr	r2, [r3, #28]
 8000f24:	f402 3200 	and.w	r2, r2, #131072	@ 0x20000
 8000f28:	9201      	str	r2, [sp, #4]
 8000f2a:	9a01      	ldr	r2, [sp, #4]
 8000f2c:	695a      	ldr	r2, [r3, #20]
 8000f2e:	f442 3200 	orr.w	r2, r2, #131072	@ 0x20000
 8000f32:	615a      	str	r2, [r3, #20]
 8000f34:	695b      	ldr	r3, [r3, #20]
 8000f36:	f403 3300 	and.w	r3, r3, #131072	@ 0x20000
 8000f3a:	9302      	str	r3, [sp, #8]
 8000f3c:	9b02      	ldr	r3, [sp, #8]
 8000f3e:	220c      	movs	r2, #12
 8000f40:	2302      	movs	r3, #2
 8000f42:	e9cd 2303 	strd	r2, r3, [sp, #12]
 8000f46:	2307      	movs	r3, #7
 8000f48:	e9cd 1306 	strd	r1, r3, [sp, #24]
 8000f4c:	f04f 4090 	mov.w	r0, #1207959552	@ 0x48000000
 8000f50:	a903      	add	r1, sp, #12
 8000f52:	f000 fbed 	bl	8001730 <HAL_GPIO_Init>
 8000f56:	b008      	add	sp, #32
 8000f58:	bd10      	pop	{r4, pc}
 8000f5a:	bf00      	nop
 8000f5c:	40004400 	.word	0x40004400

08000f60 <Reset_Handler>:
 8000f60:	f8df d034 	ldr.w	sp, [pc, #52]	@ 8000f98 <LoopForever+0x2>
 8000f64:	f7ff fe90 	bl	8000c88 <SystemInit>
 8000f68:	480c      	ldr	r0, [pc, #48]	@ (8000f9c <LoopForever+0x6>)
 8000f6a:	490d      	ldr	r1, [pc, #52]	@ (8000fa0 <LoopForever+0xa>)
 8000f6c:	4a0d      	ldr	r2, [pc, #52]	@ (8000fa4 <LoopForever+0xe>)
 8000f6e:	2300      	movs	r3, #0
 8000f70:	e002      	b.n	8000f78 <LoopCopyDataInit>

08000f72 <CopyDataInit>:
 8000f72:	58d4      	ldr	r4, [r2, r3]
 8000f74:	50c4      	str	r4, [r0, r3]
 8000f76:	3304      	adds	r3, #4

08000f78 <LoopCopyDataInit>:
 8000f78:	18c4      	adds	r4, r0, r3
 8000f7a:	428c      	cmp	r4, r1
 8000f7c:	d3f9      	bcc.n	8000f72 <CopyDataInit>
 8000f7e:	4a0a      	ldr	r2, [pc, #40]	@ (8000fa8 <LoopForever+0x12>)
 8000f80:	4c0a      	ldr	r4, [pc, #40]	@ (8000fac <LoopForever+0x16>)
 8000f82:	2300      	movs	r3, #0
 8000f84:	e001      	b.n	8000f8a <LoopFillZerobss>

08000f86 <FillZerobss>:
 8000f86:	6013      	str	r3, [r2, #0]
 8000f88:	3204      	adds	r2, #4

08000f8a <LoopFillZerobss>:
 8000f8a:	42a2      	cmp	r2, r4
 8000f8c:	d3fb      	bcc.n	8000f86 <FillZerobss>
 8000f8e:	f001 fcd3 	bl	8002938 <__libc_init_array>
 8000f92:	f7ff fcd5 	bl	8000940 <main>

08000f96 <LoopForever>:
 8000f96:	e7fe      	b.n	8000f96 <LoopForever>
 8000f98:	20003000 	.word	0x20003000
 8000f9c:	20000000 	.word	0x20000000
 8000fa0:	20000248 	.word	0x20000248
 8000fa4:	08003424 	.word	0x08003424
 8000fa8:	20000248 	.word	0x20000248
 8000fac:	200005d0 	.word	0x200005d0

08000fb0 <ADC1_2_IRQHandler>:
 8000fb0:	e7fe      	b.n	8000fb0 <ADC1_2_IRQHandler>
	...

08000fb4 <HAL_InitTick>:
 8000fb4:	b538      	push	{r3, r4, r5, lr}
 8000fb6:	4b0e      	ldr	r3, [pc, #56]	@ (8000ff0 <HAL_InitTick+0x3c>)
 8000fb8:	781a      	ldrb	r2, [r3, #0]
 8000fba:	f44f 737a 	mov.w	r3, #1000	@ 0x3e8
 8000fbe:	fbb3 f3f2 	udiv	r3, r3, r2
 8000fc2:	4a0c      	ldr	r2, [pc, #48]	@ (8000ff4 <HAL_InitTick+0x40>)
 8000fc4:	4605      	mov	r5, r0
 8000fc6:	6810      	ldr	r0, [r2, #0]
 8000fc8:	fbb0 f0f3 	udiv	r0, r0, r3
 8000fcc:	f000 fb9c 	bl	8001708 <HAL_SYSTICK_Config>
 8000fd0:	4604      	mov	r4, r0
 8000fd2:	b958      	cbnz	r0, 8000fec <HAL_InitTick+0x38>
 8000fd4:	2d0f      	cmp	r5, #15
 8000fd6:	d809      	bhi.n	8000fec <HAL_InitTick+0x38>
 8000fd8:	4602      	mov	r2, r0
 8000fda:	4629      	mov	r1, r5
 8000fdc:	f04f 30ff 	mov.w	r0, #4294967295
 8000fe0:	f000 fb52 	bl	8001688 <HAL_NVIC_SetPriority>
 8000fe4:	4b04      	ldr	r3, [pc, #16]	@ (8000ff8 <HAL_InitTick+0x44>)
 8000fe6:	4620      	mov	r0, r4
 8000fe8:	601d      	str	r5, [r3, #0]
 8000fea:	bd38      	pop	{r3, r4, r5, pc}
 8000fec:	2001      	movs	r0, #1
 8000fee:	e7fc      	b.n	8000fea <HAL_InitTick+0x36>
 8000ff0:	200001f0 	.word	0x200001f0
 8000ff4:	200001ec 	.word	0x200001ec
 8000ff8:	200001f4 	.word	0x200001f4

08000ffc <HAL_Init>:
 8000ffc:	4a07      	ldr	r2, [pc, #28]	@ (800101c <HAL_Init+0x20>)
 8000ffe:	b508      	push	{r3, lr}
 8001000:	6813      	ldr	r3, [r2, #0]
 8001002:	f043 0310 	orr.w	r3, r3, #16
 8001006:	6013      	str	r3, [r2, #0]
 8001008:	2003      	movs	r0, #3
 800100a:	f000 fb2b 	bl	8001664 <HAL_NVIC_SetPriorityGrouping>
 800100e:	200f      	movs	r0, #15
 8001010:	f7ff ffd0 	bl	8000fb4 <HAL_InitTick>
 8001014:	f7ff fddc 	bl	8000bd0 <HAL_MspInit>
 8001018:	2000      	movs	r0, #0
 800101a:	bd08      	pop	{r3, pc}
 800101c:	40022000 	.word	0x40022000

08001020 <HAL_IncTick>:
 8001020:	4a03      	ldr	r2, [pc, #12]	@ (8001030 <HAL_IncTick+0x10>)
 8001022:	4b04      	ldr	r3, [pc, #16]	@ (8001034 <HAL_IncTick+0x14>)
 8001024:	6811      	ldr	r1, [r2, #0]
 8001026:	781b      	ldrb	r3, [r3, #0]
 8001028:	440b      	add	r3, r1
 800102a:	6013      	str	r3, [r2, #0]
 800102c:	4770      	bx	lr
 800102e:	bf00      	nop
 8001030:	20000484 	.word	0x20000484
 8001034:	200001f0 	.word	0x200001f0

08001038 <HAL_GetTick>:
 8001038:	4b01      	ldr	r3, [pc, #4]	@ (8001040 <HAL_GetTick+0x8>)
 800103a:	6818      	ldr	r0, [r3, #0]
 800103c:	4770      	bx	lr
 800103e:	bf00      	nop
 8001040:	20000484 	.word	0x20000484

08001044 <HAL_Delay>:
 8001044:	b538      	push	{r3, r4, r5, lr}
 8001046:	4604      	mov	r4, r0
 8001048:	f7ff fff6 	bl	8001038 <HAL_GetTick>
 800104c:	1c63      	adds	r3, r4, #1
 800104e:	bf1c      	itt	ne
 8001050:	4b05      	ldrne	r3, [pc, #20]	@ (8001068 <HAL_Delay+0x24>)
 8001052:	781b      	ldrbne	r3, [r3, #0]
 8001054:	4605      	mov	r5, r0
 8001056:	bf18      	it	ne
 8001058:	18e4      	addne	r4, r4, r3
 800105a:	f7ff ffed 	bl	8001038 <HAL_GetTick>
 800105e:	1b43      	subs	r3, r0, r5
 8001060:	42a3      	cmp	r3, r4
 8001062:	d3fa      	bcc.n	800105a <HAL_Delay+0x16>
 8001064:	bd38      	pop	{r3, r4, r5, pc}
 8001066:	bf00      	nop
 8001068:	200001f0 	.word	0x200001f0

0800106c <HAL_CAN_Init>:
 800106c:	b538      	push	{r3, r4, r5, lr}
 800106e:	4604      	mov	r4, r0
 8001070:	2800      	cmp	r0, #0
 8001072:	d06e      	beq.n	8001152 <HAL_CAN_Init+0xe6>
 8001074:	f890 3020 	ldrb.w	r3, [r0, #32]
 8001078:	b90b      	cbnz	r3, 800107e <HAL_CAN_Init+0x12>
 800107a:	f7ff f94b 	bl	8000314 <HAL_CAN_MspInit>
 800107e:	6822      	ldr	r2, [r4, #0]
 8001080:	6813      	ldr	r3, [r2, #0]
 8001082:	f043 0301 	orr.w	r3, r3, #1
 8001086:	6013      	str	r3, [r2, #0]
 8001088:	f7ff ffd6 	bl	8001038 <HAL_GetTick>
 800108c:	4605      	mov	r5, r0
 800108e:	6823      	ldr	r3, [r4, #0]
 8001090:	685a      	ldr	r2, [r3, #4]
 8001092:	07d1      	lsls	r1, r2, #31
 8001094:	d551      	bpl.n	800113a <HAL_CAN_Init+0xce>
 8001096:	681a      	ldr	r2, [r3, #0]
 8001098:	f022 0202 	bic.w	r2, r2, #2
 800109c:	601a      	str	r2, [r3, #0]
 800109e:	f7ff ffcb 	bl	8001038 <HAL_GetTick>
 80010a2:	4605      	mov	r5, r0
 80010a4:	6823      	ldr	r3, [r4, #0]
 80010a6:	685a      	ldr	r2, [r3, #4]
 80010a8:	0792      	lsls	r2, r2, #30
 80010aa:	d454      	bmi.n	8001156 <HAL_CAN_Init+0xea>
 80010ac:	7e22      	ldrb	r2, [r4, #24]
 80010ae:	2a01      	cmp	r2, #1
 80010b0:	681a      	ldr	r2, [r3, #0]
 80010b2:	bf0c      	ite	eq
 80010b4:	f042 0280 	orreq.w	r2, r2, #128	@ 0x80
 80010b8:	f022 0280 	bicne.w	r2, r2, #128	@ 0x80
 80010bc:	601a      	str	r2, [r3, #0]
 80010be:	7e62      	ldrb	r2, [r4, #25]
 80010c0:	2a01      	cmp	r2, #1
 80010c2:	681a      	ldr	r2, [r3, #0]
 80010c4:	bf0c      	ite	eq
 80010c6:	f042 0240 	orreq.w	r2, r2, #64	@ 0x40
 80010ca:	f022 0240 	bicne.w	r2, r2, #64	@ 0x40
 80010ce:	601a      	str	r2, [r3, #0]
 80010d0:	7ea2      	ldrb	r2, [r4, #26]
 80010d2:	2a01      	cmp	r2, #1
 80010d4:	681a      	ldr	r2, [r3, #0]
 80010d6:	bf0c      	ite	eq
 80010d8:	f042 0220 	orreq.w	r2, r2, #32
 80010dc:	f022 0220 	bicne.w	r2, r2, #32
 80010e0:	601a      	str	r2, [r3, #0]
 80010e2:	7ee2      	ldrb	r2, [r4, #27]
 80010e4:	2a01      	cmp	r2, #1
 80010e6:	681a      	ldr	r2, [r3, #0]
 80010e8:	bf0c      	ite	eq
 80010ea:	f022 0210 	biceq.w	r2, r2, #16
 80010ee:	f042 0210 	orrne.w	r2, r2, #16
 80010f2:	601a      	str	r2, [r3, #0]
 80010f4:	7f22      	ldrb	r2, [r4, #28]
 80010f6:	2a01      	cmp	r2, #1
 80010f8:	681a      	ldr	r2, [r3, #0]
 80010fa:	bf0c      	ite	eq
 80010fc:	f042 0208 	orreq.w	r2, r2, #8
 8001100:	f022 0208 	bicne.w	r2, r2, #8
 8001104:	601a      	str	r2, [r3, #0]
 8001106:	7f62      	ldrb	r2, [r4, #29]
 8001108:	2a01      	cmp	r2, #1
 800110a:	681a      	ldr	r2, [r3, #0]
 800110c:	bf0c      	ite	eq
 800110e:	f042 0204 	orreq.w	r2, r2, #4
 8001112:	f022 0204 	bicne.w	r2, r2, #4
 8001116:	601a      	str	r2, [r3, #0]
 8001118:	e9d4 2102 	ldrd	r2, r1, [r4, #8]
 800111c:	430a      	orrs	r2, r1
 800111e:	6921      	ldr	r1, [r4, #16]
 8001120:	430a      	orrs	r2, r1
 8001122:	6961      	ldr	r1, [r4, #20]
 8001124:	430a      	orrs	r2, r1
 8001126:	6861      	ldr	r1, [r4, #4]
 8001128:	3901      	subs	r1, #1
 800112a:	430a      	orrs	r2, r1
 800112c:	61da      	str	r2, [r3, #28]
 800112e:	2000      	movs	r0, #0
 8001130:	2301      	movs	r3, #1
 8001132:	6260      	str	r0, [r4, #36]	@ 0x24
 8001134:	f884 3020 	strb.w	r3, [r4, #32]
 8001138:	e00c      	b.n	8001154 <HAL_CAN_Init+0xe8>
 800113a:	f7ff ff7d 	bl	8001038 <HAL_GetTick>
 800113e:	1b40      	subs	r0, r0, r5
 8001140:	280a      	cmp	r0, #10
 8001142:	d9a4      	bls.n	800108e <HAL_CAN_Init+0x22>
 8001144:	6a63      	ldr	r3, [r4, #36]	@ 0x24
 8001146:	f443 3300 	orr.w	r3, r3, #131072	@ 0x20000
 800114a:	6263      	str	r3, [r4, #36]	@ 0x24
 800114c:	2305      	movs	r3, #5
 800114e:	f884 3020 	strb.w	r3, [r4, #32]
 8001152:	2001      	movs	r0, #1
 8001154:	bd38      	pop	{r3, r4, r5, pc}
 8001156:	f7ff ff6f 	bl	8001038 <HAL_GetTick>
 800115a:	1b40      	subs	r0, r0, r5
 800115c:	280a      	cmp	r0, #10
 800115e:	d9a1      	bls.n	80010a4 <HAL_CAN_Init+0x38>
 8001160:	e7f0      	b.n	8001144 <HAL_CAN_Init+0xd8>

08001162 <HAL_CAN_ConfigFilter>:
 8001162:	b570      	push	{r4, r5, r6, lr}
 8001164:	f890 2020 	ldrb.w	r2, [r0, #32]
 8001168:	6803      	ldr	r3, [r0, #0]
 800116a:	3a01      	subs	r2, #1
 800116c:	2a01      	cmp	r2, #1
 800116e:	d860      	bhi.n	8001232 <HAL_CAN_ConfigFilter+0xd0>
 8001170:	f8d3 2200 	ldr.w	r2, [r3, #512]	@ 0x200
 8001174:	f042 0201 	orr.w	r2, r2, #1
 8001178:	f8c3 2200 	str.w	r2, [r3, #512]	@ 0x200
 800117c:	694a      	ldr	r2, [r1, #20]
 800117e:	f8d3 521c 	ldr.w	r5, [r3, #540]	@ 0x21c
 8001182:	f002 041f 	and.w	r4, r2, #31
 8001186:	2001      	movs	r0, #1
 8001188:	40a0      	lsls	r0, r4
 800118a:	ea25 0500 	bic.w	r5, r5, r0
 800118e:	f8c3 521c 	str.w	r5, [r3, #540]	@ 0x21c
 8001192:	69cd      	ldr	r5, [r1, #28]
 8001194:	43c4      	mvns	r4, r0
 8001196:	bb85      	cbnz	r5, 80011fa <HAL_CAN_ConfigFilter+0x98>
 8001198:	f8d3 520c 	ldr.w	r5, [r3, #524]	@ 0x20c
 800119c:	68ce      	ldr	r6, [r1, #12]
 800119e:	4025      	ands	r5, r4
 80011a0:	f8c3 520c 	str.w	r5, [r3, #524]	@ 0x20c
 80011a4:	888d      	ldrh	r5, [r1, #4]
 80011a6:	eb03 02c2 	add.w	r2, r3, r2, lsl #3
 80011aa:	ea45 4506 	orr.w	r5, r5, r6, lsl #16
 80011ae:	f8c2 5240 	str.w	r5, [r2, #576]	@ 0x240
 80011b2:	688e      	ldr	r6, [r1, #8]
 80011b4:	880d      	ldrh	r5, [r1, #0]
 80011b6:	ea45 4506 	orr.w	r5, r5, r6, lsl #16
 80011ba:	f8c2 5244 	str.w	r5, [r2, #580]	@ 0x244
 80011be:	698a      	ldr	r2, [r1, #24]
 80011c0:	bb6a      	cbnz	r2, 800121e <HAL_CAN_ConfigFilter+0xbc>
 80011c2:	f8d3 2204 	ldr.w	r2, [r3, #516]	@ 0x204
 80011c6:	4022      	ands	r2, r4
 80011c8:	f8c3 2204 	str.w	r2, [r3, #516]	@ 0x204
 80011cc:	690a      	ldr	r2, [r1, #16]
 80011ce:	bb52      	cbnz	r2, 8001226 <HAL_CAN_ConfigFilter+0xc4>
 80011d0:	f8d3 2214 	ldr.w	r2, [r3, #532]	@ 0x214
 80011d4:	4014      	ands	r4, r2
 80011d6:	f8c3 4214 	str.w	r4, [r3, #532]	@ 0x214
 80011da:	6a0a      	ldr	r2, [r1, #32]
 80011dc:	2a01      	cmp	r2, #1
 80011de:	bf02      	ittt	eq
 80011e0:	f8d3 221c 	ldreq.w	r2, [r3, #540]	@ 0x21c
 80011e4:	4302      	orreq	r2, r0
 80011e6:	f8c3 221c 	streq.w	r2, [r3, #540]	@ 0x21c
 80011ea:	f8d3 2200 	ldr.w	r2, [r3, #512]	@ 0x200
 80011ee:	f022 0201 	bic.w	r2, r2, #1
 80011f2:	f8c3 2200 	str.w	r2, [r3, #512]	@ 0x200
 80011f6:	2000      	movs	r0, #0
 80011f8:	bd70      	pop	{r4, r5, r6, pc}
 80011fa:	2d01      	cmp	r5, #1
 80011fc:	d1df      	bne.n	80011be <HAL_CAN_ConfigFilter+0x5c>
 80011fe:	f8d3 520c 	ldr.w	r5, [r3, #524]	@ 0x20c
 8001202:	680e      	ldr	r6, [r1, #0]
 8001204:	4305      	orrs	r5, r0
 8001206:	f8c3 520c 	str.w	r5, [r3, #524]	@ 0x20c
 800120a:	888d      	ldrh	r5, [r1, #4]
 800120c:	eb03 02c2 	add.w	r2, r3, r2, lsl #3
 8001210:	ea45 4506 	orr.w	r5, r5, r6, lsl #16
 8001214:	f8c2 5240 	str.w	r5, [r2, #576]	@ 0x240
 8001218:	688e      	ldr	r6, [r1, #8]
 800121a:	898d      	ldrh	r5, [r1, #12]
 800121c:	e7cb      	b.n	80011b6 <HAL_CAN_ConfigFilter+0x54>
 800121e:	f8d3 2204 	ldr.w	r2, [r3, #516]	@ 0x204
 8001222:	4302      	orrs	r2, r0
 8001224:	e7d0      	b.n	80011c8 <HAL_CAN_ConfigFilter+0x66>
 8001226:	f8d3 2214 	ldr.w	r2, [r3, #532]	@ 0x214
 800122a:	4302      	orrs	r2, r0
 800122c:	f8c3 2214 	str.w	r2, [r3, #532]	@ 0x214
 8001230:	e7d3      	b.n	80011da <HAL_CAN_ConfigFilter+0x78>
 8001232:	6a43      	ldr	r3, [r0, #36]	@ 0x24
 8001234:	f443 2380 	orr.w	r3, r3, #262144	@ 0x40000
 8001238:	6243      	str	r3, [r0, #36]	@ 0x24
 800123a:	2001      	movs	r0, #1
 800123c:	e7dc      	b.n	80011f8 <HAL_CAN_ConfigFilter+0x96>

0800123e <HAL_CAN_Start>:
 800123e:	b538      	push	{r3, r4, r5, lr}
 8001240:	f890 3020 	ldrb.w	r3, [r0, #32]
 8001244:	2b01      	cmp	r3, #1
 8001246:	4604      	mov	r4, r0
 8001248:	d11f      	bne.n	800128a <HAL_CAN_Start+0x4c>
 800124a:	6802      	ldr	r2, [r0, #0]
 800124c:	2302      	movs	r3, #2
 800124e:	f880 3020 	strb.w	r3, [r0, #32]
 8001252:	6813      	ldr	r3, [r2, #0]
 8001254:	f023 0301 	bic.w	r3, r3, #1
 8001258:	6013      	str	r3, [r2, #0]
 800125a:	f7ff feed 	bl	8001038 <HAL_GetTick>
 800125e:	4605      	mov	r5, r0
 8001260:	6823      	ldr	r3, [r4, #0]
 8001262:	6858      	ldr	r0, [r3, #4]
 8001264:	f010 0001 	ands.w	r0, r0, #1
 8001268:	d101      	bne.n	800126e <HAL_CAN_Start+0x30>
 800126a:	6260      	str	r0, [r4, #36]	@ 0x24
 800126c:	bd38      	pop	{r3, r4, r5, pc}
 800126e:	f7ff fee3 	bl	8001038 <HAL_GetTick>
 8001272:	1b40      	subs	r0, r0, r5
 8001274:	280a      	cmp	r0, #10
 8001276:	d9f3      	bls.n	8001260 <HAL_CAN_Start+0x22>
 8001278:	6a63      	ldr	r3, [r4, #36]	@ 0x24
 800127a:	f443 3300 	orr.w	r3, r3, #131072	@ 0x20000
 800127e:	6263      	str	r3, [r4, #36]	@ 0x24
 8001280:	2305      	movs	r3, #5
 8001282:	f884 3020 	strb.w	r3, [r4, #32]
 8001286:	2001      	movs	r0, #1
 8001288:	e7f0      	b.n	800126c <HAL_CAN_Start+0x2e>
 800128a:	6a43      	ldr	r3, [r0, #36]	@ 0x24
 800128c:	f443 2300 	orr.w	r3, r3, #524288	@ 0x80000
 8001290:	6243      	str	r3, [r0, #36]	@ 0x24
 8001292:	e7f8      	b.n	8001286 <HAL_CAN_Start+0x48>

08001294 <HAL_CAN_AddTxMessage>:
 8001294:	b5f0      	push	{r4, r5, r6, r7, lr}
 8001296:	f890 5020 	ldrb.w	r5, [r0, #32]
 800129a:	6804      	ldr	r4, [r0, #0]
 800129c:	3d01      	subs	r5, #1
 800129e:	2d01      	cmp	r5, #1
 80012a0:	68a6      	ldr	r6, [r4, #8]
 80012a2:	d83e      	bhi.n	8001322 <HAL_CAN_AddTxMessage+0x8e>
 80012a4:	f016 5fe0 	tst.w	r6, #469762048	@ 0x1c000000
 80012a8:	d035      	beq.n	8001316 <HAL_CAN_AddTxMessage+0x82>
 80012aa:	f3c6 6001 	ubfx	r0, r6, #24, #2
 80012ae:	2501      	movs	r5, #1
 80012b0:	4085      	lsls	r5, r0
 80012b2:	601d      	str	r5, [r3, #0]
 80012b4:	e9d1 5702 	ldrd	r5, r7, [r1, #8]
 80012b8:	f100 0318 	add.w	r3, r0, #24
 80012bc:	bb25      	cbnz	r5, 8001308 <HAL_CAN_AddTxMessage+0x74>
 80012be:	680d      	ldr	r5, [r1, #0]
 80012c0:	011b      	lsls	r3, r3, #4
 80012c2:	ea47 5745 	orr.w	r7, r7, r5, lsl #21
 80012c6:	50e7      	str	r7, [r4, r3]
 80012c8:	eb04 1300 	add.w	r3, r4, r0, lsl #4
 80012cc:	690e      	ldr	r6, [r1, #16]
 80012ce:	f8c3 6184 	str.w	r6, [r3, #388]	@ 0x184
 80012d2:	7d09      	ldrb	r1, [r1, #20]
 80012d4:	2901      	cmp	r1, #1
 80012d6:	bf08      	it	eq
 80012d8:	f8d3 1184 	ldreq.w	r1, [r3, #388]	@ 0x184
 80012dc:	ea4f 1500 	mov.w	r5, r0, lsl #4
 80012e0:	bf04      	itt	eq
 80012e2:	f441 7180 	orreq.w	r1, r1, #256	@ 0x100
 80012e6:	f8c3 1184 	streq.w	r1, [r3, #388]	@ 0x184
 80012ea:	442c      	add	r4, r5
 80012ec:	6851      	ldr	r1, [r2, #4]
 80012ee:	f8c4 118c 	str.w	r1, [r4, #396]	@ 0x18c
 80012f2:	6812      	ldr	r2, [r2, #0]
 80012f4:	f8c4 2188 	str.w	r2, [r4, #392]	@ 0x188
 80012f8:	f8d3 2180 	ldr.w	r2, [r3, #384]	@ 0x180
 80012fc:	f042 0201 	orr.w	r2, r2, #1
 8001300:	f8c3 2180 	str.w	r2, [r3, #384]	@ 0x180
 8001304:	2000      	movs	r0, #0
 8001306:	bdf0      	pop	{r4, r5, r6, r7, pc}
 8001308:	684e      	ldr	r6, [r1, #4]
 800130a:	433d      	orrs	r5, r7
 800130c:	011b      	lsls	r3, r3, #4
 800130e:	ea45 05c6 	orr.w	r5, r5, r6, lsl #3
 8001312:	50e5      	str	r5, [r4, r3]
 8001314:	e7d8      	b.n	80012c8 <HAL_CAN_AddTxMessage+0x34>
 8001316:	6a43      	ldr	r3, [r0, #36]	@ 0x24
 8001318:	f443 1300 	orr.w	r3, r3, #2097152	@ 0x200000
 800131c:	6243      	str	r3, [r0, #36]	@ 0x24
 800131e:	2001      	movs	r0, #1
 8001320:	e7f1      	b.n	8001306 <HAL_CAN_AddTxMessage+0x72>
 8001322:	6a43      	ldr	r3, [r0, #36]	@ 0x24
 8001324:	f443 2380 	orr.w	r3, r3, #262144	@ 0x40000
 8001328:	e7f8      	b.n	800131c <HAL_CAN_AddTxMessage+0x88>

0800132a <HAL_CAN_GetRxMessage>:
 800132a:	b5f0      	push	{r4, r5, r6, r7, lr}
 800132c:	f890 4020 	ldrb.w	r4, [r0, #32]
 8001330:	3c01      	subs	r4, #1
 8001332:	2c01      	cmp	r4, #1
 8001334:	d871      	bhi.n	800141a <HAL_CAN_GetRxMessage+0xf0>
 8001336:	6806      	ldr	r6, [r0, #0]
 8001338:	b941      	cbnz	r1, 800134c <HAL_CAN_GetRxMessage+0x22>
 800133a:	68f4      	ldr	r4, [r6, #12]
 800133c:	07a4      	lsls	r4, r4, #30
 800133e:	d107      	bne.n	8001350 <HAL_CAN_GetRxMessage+0x26>
 8001340:	6a43      	ldr	r3, [r0, #36]	@ 0x24
 8001342:	f443 1300 	orr.w	r3, r3, #2097152	@ 0x200000
 8001346:	6243      	str	r3, [r0, #36]	@ 0x24
 8001348:	2001      	movs	r0, #1
 800134a:	bdf0      	pop	{r4, r5, r6, r7, pc}
 800134c:	6934      	ldr	r4, [r6, #16]
 800134e:	e7f5      	b.n	800133c <HAL_CAN_GetRxMessage+0x12>
 8001350:	eb06 1501 	add.w	r5, r6, r1, lsl #4
 8001354:	010c      	lsls	r4, r1, #4
 8001356:	f8d5 71b0 	ldr.w	r7, [r5, #432]	@ 0x1b0
 800135a:	f007 0704 	and.w	r7, r7, #4
 800135e:	6097      	str	r7, [r2, #8]
 8001360:	2f00      	cmp	r7, #0
 8001362:	d150      	bne.n	8001406 <HAL_CAN_GetRxMessage+0xdc>
 8001364:	f8d5 71b0 	ldr.w	r7, [r5, #432]	@ 0x1b0
 8001368:	0d7f      	lsrs	r7, r7, #21
 800136a:	6017      	str	r7, [r2, #0]
 800136c:	f8d5 71b0 	ldr.w	r7, [r5, #432]	@ 0x1b0
 8001370:	f007 0702 	and.w	r7, r7, #2
 8001374:	60d7      	str	r7, [r2, #12]
 8001376:	f8d5 71b4 	ldr.w	r7, [r5, #436]	@ 0x1b4
 800137a:	073f      	lsls	r7, r7, #28
 800137c:	bf56      	itet	pl
 800137e:	f8d5 71b4 	ldrpl.w	r7, [r5, #436]	@ 0x1b4
 8001382:	2708      	movmi	r7, #8
 8001384:	f007 070f 	andpl.w	r7, r7, #15
 8001388:	6117      	str	r7, [r2, #16]
 800138a:	f8d5 71b4 	ldr.w	r7, [r5, #436]	@ 0x1b4
 800138e:	f8d5 51b4 	ldr.w	r5, [r5, #436]	@ 0x1b4
 8001392:	4426      	add	r6, r4
 8001394:	f3c7 2707 	ubfx	r7, r7, #8, #8
 8001398:	0c2d      	lsrs	r5, r5, #16
 800139a:	6197      	str	r7, [r2, #24]
 800139c:	6155      	str	r5, [r2, #20]
 800139e:	f8d6 21b8 	ldr.w	r2, [r6, #440]	@ 0x1b8
 80013a2:	701a      	strb	r2, [r3, #0]
 80013a4:	6802      	ldr	r2, [r0, #0]
 80013a6:	4422      	add	r2, r4
 80013a8:	f8d2 21b8 	ldr.w	r2, [r2, #440]	@ 0x1b8
 80013ac:	0a12      	lsrs	r2, r2, #8
 80013ae:	705a      	strb	r2, [r3, #1]
 80013b0:	6802      	ldr	r2, [r0, #0]
 80013b2:	4422      	add	r2, r4
 80013b4:	f8d2 21b8 	ldr.w	r2, [r2, #440]	@ 0x1b8
 80013b8:	0c12      	lsrs	r2, r2, #16
 80013ba:	709a      	strb	r2, [r3, #2]
 80013bc:	6802      	ldr	r2, [r0, #0]
 80013be:	4422      	add	r2, r4
 80013c0:	f8d2 21b8 	ldr.w	r2, [r2, #440]	@ 0x1b8
 80013c4:	0e12      	lsrs	r2, r2, #24
 80013c6:	70da      	strb	r2, [r3, #3]
 80013c8:	6802      	ldr	r2, [r0, #0]
 80013ca:	4422      	add	r2, r4
 80013cc:	f8d2 21bc 	ldr.w	r2, [r2, #444]	@ 0x1bc
 80013d0:	711a      	strb	r2, [r3, #4]
 80013d2:	6802      	ldr	r2, [r0, #0]
 80013d4:	4422      	add	r2, r4
 80013d6:	f8d2 21bc 	ldr.w	r2, [r2, #444]	@ 0x1bc
 80013da:	0a12      	lsrs	r2, r2, #8
 80013dc:	715a      	strb	r2, [r3, #5]
 80013de:	6802      	ldr	r2, [r0, #0]
 80013e0:	4422      	add	r2, r4
 80013e2:	f8d2 21bc 	ldr.w	r2, [r2, #444]	@ 0x1bc
 80013e6:	0c12      	lsrs	r2, r2, #16
 80013e8:	719a      	strb	r2, [r3, #6]
 80013ea:	6802      	ldr	r2, [r0, #0]
 80013ec:	4422      	add	r2, r4
 80013ee:	f8d2 21bc 	ldr.w	r2, [r2, #444]	@ 0x1bc
 80013f2:	0e12      	lsrs	r2, r2, #24
 80013f4:	71da      	strb	r2, [r3, #7]
 80013f6:	6803      	ldr	r3, [r0, #0]
 80013f8:	b951      	cbnz	r1, 8001410 <HAL_CAN_GetRxMessage+0xe6>
 80013fa:	68da      	ldr	r2, [r3, #12]
 80013fc:	f042 0220 	orr.w	r2, r2, #32
 8001400:	60da      	str	r2, [r3, #12]
 8001402:	2000      	movs	r0, #0
 8001404:	e7a1      	b.n	800134a <HAL_CAN_GetRxMessage+0x20>
 8001406:	f8d5 71b0 	ldr.w	r7, [r5, #432]	@ 0x1b0
 800140a:	08ff      	lsrs	r7, r7, #3
 800140c:	6057      	str	r7, [r2, #4]
 800140e:	e7ad      	b.n	800136c <HAL_CAN_GetRxMessage+0x42>
 8001410:	691a      	ldr	r2, [r3, #16]
 8001412:	f042 0220 	orr.w	r2, r2, #32
 8001416:	611a      	str	r2, [r3, #16]
 8001418:	e7f3      	b.n	8001402 <HAL_CAN_GetRxMessage+0xd8>
 800141a:	6a43      	ldr	r3, [r0, #36]	@ 0x24
 800141c:	f443 2380 	orr.w	r3, r3, #262144	@ 0x40000
 8001420:	e791      	b.n	8001346 <HAL_CAN_GetRxMessage+0x1c>

08001422 <HAL_CAN_ActivateNotification>:
 8001422:	f890 3020 	ldrb.w	r3, [r0, #32]
 8001426:	3b01      	subs	r3, #1
 8001428:	2b01      	cmp	r3, #1
 800142a:	d805      	bhi.n	8001438 <HAL_CAN_ActivateNotification+0x16>
 800142c:	6802      	ldr	r2, [r0, #0]
 800142e:	6953      	ldr	r3, [r2, #20]
 8001430:	4319      	orrs	r1, r3
 8001432:	6151      	str	r1, [r2, #20]
 8001434:	2000      	movs	r0, #0
 8001436:	4770      	bx	lr
 8001438:	6a43      	ldr	r3, [r0, #36]	@ 0x24
 800143a:	f443 2380 	orr.w	r3, r3, #262144	@ 0x40000
 800143e:	6243      	str	r3, [r0, #36]	@ 0x24
 8001440:	2001      	movs	r0, #1
 8001442:	4770      	bx	lr

08001444 <HAL_CAN_TxMailbox0CompleteCallback>:
 8001444:	4770      	bx	lr

08001446 <HAL_CAN_TxMailbox1CompleteCallback>:
 8001446:	4770      	bx	lr

08001448 <HAL_CAN_TxMailbox2CompleteCallback>:
 8001448:	4770      	bx	lr

0800144a <HAL_CAN_TxMailbox0AbortCallback>:
 800144a:	4770      	bx	lr

0800144c <HAL_CAN_TxMailbox1AbortCallback>:
 800144c:	4770      	bx	lr

0800144e <HAL_CAN_TxMailbox2AbortCallback>:
 800144e:	4770      	bx	lr

08001450 <HAL_CAN_RxFifo0FullCallback>:
 8001450:	4770      	bx	lr

08001452 <HAL_CAN_RxFifo1MsgPendingCallback>:
 8001452:	4770      	bx	lr

08001454 <HAL_CAN_RxFifo1FullCallback>:
 8001454:	4770      	bx	lr

08001456 <HAL_CAN_SleepCallback>:
 8001456:	4770      	bx	lr

08001458 <HAL_CAN_WakeUpFromRxMsgCallback>:
 8001458:	4770      	bx	lr

0800145a <HAL_CAN_ErrorCallback>:
 800145a:	4770      	bx	lr

0800145c <HAL_CAN_IRQHandler>:
 800145c:	e92d 4ff8 	stmdb	sp!, {r3, r4, r5, r6, r7, r8, r9, sl, fp, lr}
 8001460:	6803      	ldr	r3, [r0, #0]
 8001462:	695e      	ldr	r6, [r3, #20]
 8001464:	f8d3 9004 	ldr.w	r9, [r3, #4]
 8001468:	f8d3 8008 	ldr.w	r8, [r3, #8]
 800146c:	f8d3 b00c 	ldr.w	fp, [r3, #12]
 8001470:	f8d3 a010 	ldr.w	sl, [r3, #16]
 8001474:	699f      	ldr	r7, [r3, #24]
 8001476:	f016 0401 	ands.w	r4, r6, #1
 800147a:	4605      	mov	r5, r0
 800147c:	d027      	beq.n	80014ce <HAL_CAN_IRQHandler+0x72>
 800147e:	f018 0f01 	tst.w	r8, #1
 8001482:	d007      	beq.n	8001494 <HAL_CAN_IRQHandler+0x38>
 8001484:	2201      	movs	r2, #1
 8001486:	f018 0f02 	tst.w	r8, #2
 800148a:	609a      	str	r2, [r3, #8]
 800148c:	f000 80a5 	beq.w	80015da <HAL_CAN_IRQHandler+0x17e>
 8001490:	f7ff ffd8 	bl	8001444 <HAL_CAN_TxMailbox0CompleteCallback>
 8001494:	2400      	movs	r4, #0
 8001496:	f418 7f80 	tst.w	r8, #256	@ 0x100
 800149a:	d00a      	beq.n	80014b2 <HAL_CAN_IRQHandler+0x56>
 800149c:	682b      	ldr	r3, [r5, #0]
 800149e:	f44f 7280 	mov.w	r2, #256	@ 0x100
 80014a2:	f418 7f00 	tst.w	r8, #512	@ 0x200
 80014a6:	609a      	str	r2, [r3, #8]
 80014a8:	f000 80a6 	beq.w	80015f8 <HAL_CAN_IRQHandler+0x19c>
 80014ac:	4628      	mov	r0, r5
 80014ae:	f7ff ffca 	bl	8001446 <HAL_CAN_TxMailbox1CompleteCallback>
 80014b2:	f418 3f80 	tst.w	r8, #65536	@ 0x10000
 80014b6:	d00a      	beq.n	80014ce <HAL_CAN_IRQHandler+0x72>
 80014b8:	682b      	ldr	r3, [r5, #0]
 80014ba:	f44f 3280 	mov.w	r2, #65536	@ 0x10000
 80014be:	f418 3f00 	tst.w	r8, #131072	@ 0x20000
 80014c2:	609a      	str	r2, [r3, #8]
 80014c4:	f000 80a8 	beq.w	8001618 <HAL_CAN_IRQHandler+0x1bc>
 80014c8:	4628      	mov	r0, r5
 80014ca:	f7ff ffbd 	bl	8001448 <HAL_CAN_TxMailbox2CompleteCallback>
 80014ce:	0731      	lsls	r1, r6, #28
 80014d0:	d507      	bpl.n	80014e2 <HAL_CAN_IRQHandler+0x86>
 80014d2:	f01b 0f10 	tst.w	fp, #16
 80014d6:	bf1f      	itttt	ne
 80014d8:	682b      	ldrne	r3, [r5, #0]
 80014da:	2210      	movne	r2, #16
 80014dc:	f444 7400 	orrne.w	r4, r4, #512	@ 0x200
 80014e0:	60da      	strne	r2, [r3, #12]
 80014e2:	0772      	lsls	r2, r6, #29
 80014e4:	d508      	bpl.n	80014f8 <HAL_CAN_IRQHandler+0x9c>
 80014e6:	f01b 0f08 	tst.w	fp, #8
 80014ea:	d005      	beq.n	80014f8 <HAL_CAN_IRQHandler+0x9c>
 80014ec:	682b      	ldr	r3, [r5, #0]
 80014ee:	2208      	movs	r2, #8
 80014f0:	60da      	str	r2, [r3, #12]
 80014f2:	4628      	mov	r0, r5
 80014f4:	f7ff ffac 	bl	8001450 <HAL_CAN_RxFifo0FullCallback>
 80014f8:	07b3      	lsls	r3, r6, #30
 80014fa:	d506      	bpl.n	800150a <HAL_CAN_IRQHandler+0xae>
 80014fc:	682b      	ldr	r3, [r5, #0]
 80014fe:	68db      	ldr	r3, [r3, #12]
 8001500:	0798      	lsls	r0, r3, #30
 8001502:	d002      	beq.n	800150a <HAL_CAN_IRQHandler+0xae>
 8001504:	4628      	mov	r0, r5
 8001506:	f7fe ffaf 	bl	8000468 <HAL_CAN_RxFifo0MsgPendingCallback>
 800150a:	0671      	lsls	r1, r6, #25
 800150c:	d507      	bpl.n	800151e <HAL_CAN_IRQHandler+0xc2>
 800150e:	f01a 0f10 	tst.w	sl, #16
 8001512:	bf1f      	itttt	ne
 8001514:	682b      	ldrne	r3, [r5, #0]
 8001516:	2210      	movne	r2, #16
 8001518:	f444 6480 	orrne.w	r4, r4, #1024	@ 0x400
 800151c:	611a      	strne	r2, [r3, #16]
 800151e:	06b2      	lsls	r2, r6, #26
 8001520:	d508      	bpl.n	8001534 <HAL_CAN_IRQHandler+0xd8>
 8001522:	f01a 0f08 	tst.w	sl, #8
 8001526:	d005      	beq.n	8001534 <HAL_CAN_IRQHandler+0xd8>
 8001528:	682b      	ldr	r3, [r5, #0]
 800152a:	2208      	movs	r2, #8
 800152c:	611a      	str	r2, [r3, #16]
 800152e:	4628      	mov	r0, r5
 8001530:	f7ff ff90 	bl	8001454 <HAL_CAN_RxFifo1FullCallback>
 8001534:	06f3      	lsls	r3, r6, #27
 8001536:	d506      	bpl.n	8001546 <HAL_CAN_IRQHandler+0xea>
 8001538:	682b      	ldr	r3, [r5, #0]
 800153a:	691b      	ldr	r3, [r3, #16]
 800153c:	0798      	lsls	r0, r3, #30
 800153e:	d002      	beq.n	8001546 <HAL_CAN_IRQHandler+0xea>
 8001540:	4628      	mov	r0, r5
 8001542:	f7ff ff86 	bl	8001452 <HAL_CAN_RxFifo1MsgPendingCallback>
 8001546:	03b1      	lsls	r1, r6, #14
 8001548:	d508      	bpl.n	800155c <HAL_CAN_IRQHandler+0x100>
 800154a:	f019 0f10 	tst.w	r9, #16
 800154e:	d005      	beq.n	800155c <HAL_CAN_IRQHandler+0x100>
 8001550:	682b      	ldr	r3, [r5, #0]
 8001552:	2210      	movs	r2, #16
 8001554:	605a      	str	r2, [r3, #4]
 8001556:	4628      	mov	r0, r5
 8001558:	f7ff ff7d 	bl	8001456 <HAL_CAN_SleepCallback>
 800155c:	03f2      	lsls	r2, r6, #15
 800155e:	d508      	bpl.n	8001572 <HAL_CAN_IRQHandler+0x116>
 8001560:	f019 0f08 	tst.w	r9, #8
 8001564:	d005      	beq.n	8001572 <HAL_CAN_IRQHandler+0x116>
 8001566:	682b      	ldr	r3, [r5, #0]
 8001568:	2208      	movs	r2, #8
 800156a:	605a      	str	r2, [r3, #4]
 800156c:	4628      	mov	r0, r5
 800156e:	f7ff ff73 	bl	8001458 <HAL_CAN_WakeUpFromRxMsgCallback>
 8001572:	0433      	lsls	r3, r6, #16
 8001574:	d528      	bpl.n	80015c8 <HAL_CAN_IRQHandler+0x16c>
 8001576:	f019 0f04 	tst.w	r9, #4
 800157a:	682a      	ldr	r2, [r5, #0]
 800157c:	d022      	beq.n	80015c4 <HAL_CAN_IRQHandler+0x168>
 800157e:	05f0      	lsls	r0, r6, #23
 8001580:	bf44      	itt	mi
 8001582:	f007 0301 	andmi.w	r3, r7, #1
 8001586:	431c      	orrmi	r4, r3
 8001588:	05b1      	lsls	r1, r6, #22
 800158a:	d503      	bpl.n	8001594 <HAL_CAN_IRQHandler+0x138>
 800158c:	07bb      	lsls	r3, r7, #30
 800158e:	bf48      	it	mi
 8001590:	f044 0402 	orrmi.w	r4, r4, #2
 8001594:	0570      	lsls	r0, r6, #21
 8001596:	d503      	bpl.n	80015a0 <HAL_CAN_IRQHandler+0x144>
 8001598:	0779      	lsls	r1, r7, #29
 800159a:	bf48      	it	mi
 800159c:	f044 0404 	orrmi.w	r4, r4, #4
 80015a0:	0533      	lsls	r3, r6, #20
 80015a2:	d50f      	bpl.n	80015c4 <HAL_CAN_IRQHandler+0x168>
 80015a4:	f017 0370 	ands.w	r3, r7, #112	@ 0x70
 80015a8:	d00c      	beq.n	80015c4 <HAL_CAN_IRQHandler+0x168>
 80015aa:	2b40      	cmp	r3, #64	@ 0x40
 80015ac:	d054      	beq.n	8001658 <HAL_CAN_IRQHandler+0x1fc>
 80015ae:	d843      	bhi.n	8001638 <HAL_CAN_IRQHandler+0x1dc>
 80015b0:	2b20      	cmp	r3, #32
 80015b2:	d04b      	beq.n	800164c <HAL_CAN_IRQHandler+0x1f0>
 80015b4:	2b30      	cmp	r3, #48	@ 0x30
 80015b6:	d04c      	beq.n	8001652 <HAL_CAN_IRQHandler+0x1f6>
 80015b8:	2b10      	cmp	r3, #16
 80015ba:	d044      	beq.n	8001646 <HAL_CAN_IRQHandler+0x1ea>
 80015bc:	6993      	ldr	r3, [r2, #24]
 80015be:	f023 0370 	bic.w	r3, r3, #112	@ 0x70
 80015c2:	6193      	str	r3, [r2, #24]
 80015c4:	2304      	movs	r3, #4
 80015c6:	6053      	str	r3, [r2, #4]
 80015c8:	b12c      	cbz	r4, 80015d6 <HAL_CAN_IRQHandler+0x17a>
 80015ca:	6a6b      	ldr	r3, [r5, #36]	@ 0x24
 80015cc:	4323      	orrs	r3, r4
 80015ce:	626b      	str	r3, [r5, #36]	@ 0x24
 80015d0:	4628      	mov	r0, r5
 80015d2:	f7ff ff42 	bl	800145a <HAL_CAN_ErrorCallback>
 80015d6:	e8bd 8ff8 	ldmia.w	sp!, {r3, r4, r5, r6, r7, r8, r9, sl, fp, pc}
 80015da:	f018 0f04 	tst.w	r8, #4
 80015de:	d105      	bne.n	80015ec <HAL_CAN_IRQHandler+0x190>
 80015e0:	f018 0f08 	tst.w	r8, #8
 80015e4:	d105      	bne.n	80015f2 <HAL_CAN_IRQHandler+0x196>
 80015e6:	f7ff ff30 	bl	800144a <HAL_CAN_TxMailbox0AbortCallback>
 80015ea:	e753      	b.n	8001494 <HAL_CAN_IRQHandler+0x38>
 80015ec:	f44f 6400 	mov.w	r4, #2048	@ 0x800
 80015f0:	e751      	b.n	8001496 <HAL_CAN_IRQHandler+0x3a>
 80015f2:	f44f 5480 	mov.w	r4, #4096	@ 0x1000
 80015f6:	e74e      	b.n	8001496 <HAL_CAN_IRQHandler+0x3a>
 80015f8:	f418 6f80 	tst.w	r8, #1024	@ 0x400
 80015fc:	d002      	beq.n	8001604 <HAL_CAN_IRQHandler+0x1a8>
 80015fe:	f444 5400 	orr.w	r4, r4, #8192	@ 0x2000
 8001602:	e756      	b.n	80014b2 <HAL_CAN_IRQHandler+0x56>
 8001604:	f418 6f00 	tst.w	r8, #2048	@ 0x800
 8001608:	d002      	beq.n	8001610 <HAL_CAN_IRQHandler+0x1b4>
 800160a:	f444 4480 	orr.w	r4, r4, #16384	@ 0x4000
 800160e:	e750      	b.n	80014b2 <HAL_CAN_IRQHandler+0x56>
 8001610:	4628      	mov	r0, r5
 8001612:	f7ff ff1b 	bl	800144c <HAL_CAN_TxMailbox1AbortCallback>
 8001616:	e74c      	b.n	80014b2 <HAL_CAN_IRQHandler+0x56>
 8001618:	f418 2f80 	tst.w	r8, #262144	@ 0x40000
 800161c:	d002      	beq.n	8001624 <HAL_CAN_IRQHandler+0x1c8>
 800161e:	f444 4400 	orr.w	r4, r4, #32768	@ 0x8000
 8001622:	e754      	b.n	80014ce <HAL_CAN_IRQHandler+0x72>
 8001624:	f418 2f00 	tst.w	r8, #524288	@ 0x80000
 8001628:	d002      	beq.n	8001630 <HAL_CAN_IRQHandler+0x1d4>
 800162a:	f444 3480 	orr.w	r4, r4, #65536	@ 0x10000
 800162e:	e74e      	b.n	80014ce <HAL_CAN_IRQHandler+0x72>
 8001630:	4628      	mov	r0, r5
 8001632:	f7ff ff0c 	bl	800144e <HAL_CAN_TxMailbox2AbortCallback>
 8001636:	e74a      	b.n	80014ce <HAL_CAN_IRQHandler+0x72>
 8001638:	2b50      	cmp	r3, #80	@ 0x50
 800163a:	d010      	beq.n	800165e <HAL_CAN_IRQHandler+0x202>
 800163c:	2b60      	cmp	r3, #96	@ 0x60
 800163e:	d1bd      	bne.n	80015bc <HAL_CAN_IRQHandler+0x160>
 8001640:	f444 7480 	orr.w	r4, r4, #256	@ 0x100
 8001644:	e7ba      	b.n	80015bc <HAL_CAN_IRQHandler+0x160>
 8001646:	f044 0408 	orr.w	r4, r4, #8
 800164a:	e7b7      	b.n	80015bc <HAL_CAN_IRQHandler+0x160>
 800164c:	f044 0410 	orr.w	r4, r4, #16
 8001650:	e7b4      	b.n	80015bc <HAL_CAN_IRQHandler+0x160>
 8001652:	f044 0420 	orr.w	r4, r4, #32
 8001656:	e7b1      	b.n	80015bc <HAL_CAN_IRQHandler+0x160>
 8001658:	f044 0440 	orr.w	r4, r4, #64	@ 0x40
 800165c:	e7ae      	b.n	80015bc <HAL_CAN_IRQHandler+0x160>
 800165e:	f044 0480 	orr.w	r4, r4, #128	@ 0x80
 8001662:	e7ab      	b.n	80015bc <HAL_CAN_IRQHandler+0x160>

08001664 <HAL_NVIC_SetPriorityGrouping>:
 8001664:	4907      	ldr	r1, [pc, #28]	@ (8001684 <HAL_NVIC_SetPriorityGrouping+0x20>)
 8001666:	68ca      	ldr	r2, [r1, #12]
 8001668:	f422 62e0 	bic.w	r2, r2, #1792	@ 0x700
 800166c:	0203      	lsls	r3, r0, #8
 800166e:	0412      	lsls	r2, r2, #16
 8001670:	f403 63e0 	and.w	r3, r3, #1792	@ 0x700
 8001674:	0c12      	lsrs	r2, r2, #16
 8001676:	4313      	orrs	r3, r2
 8001678:	f043 63bf 	orr.w	r3, r3, #100139008	@ 0x5f80000
 800167c:	f443 3300 	orr.w	r3, r3, #131072	@ 0x20000
 8001680:	60cb      	str	r3, [r1, #12]
 8001682:	4770      	bx	lr
 8001684:	e000ed00 	.word	0xe000ed00

08001688 <HAL_NVIC_SetPriority>:
 8001688:	4b16      	ldr	r3, [pc, #88]	@ (80016e4 <HAL_NVIC_SetPriority+0x5c>)
 800168a:	b530      	push	{r4, r5, lr}
 800168c:	68dc      	ldr	r4, [r3, #12]
 800168e:	f3c4 2402 	ubfx	r4, r4, #8, #3
 8001692:	f1c4 0307 	rsb	r3, r4, #7
 8001696:	1d25      	adds	r5, r4, #4
 8001698:	2b04      	cmp	r3, #4
 800169a:	bf28      	it	cs
 800169c:	2304      	movcs	r3, #4
 800169e:	2d06      	cmp	r5, #6
 80016a0:	f04f 35ff 	mov.w	r5, #4294967295
 80016a4:	bf8c      	ite	hi
 80016a6:	3c03      	subhi	r4, #3
 80016a8:	2400      	movls	r4, #0
 80016aa:	fa05 f303 	lsl.w	r3, r5, r3
 80016ae:	ea21 0303 	bic.w	r3, r1, r3
 80016b2:	40a5      	lsls	r5, r4
 80016b4:	ea22 0205 	bic.w	r2, r2, r5
 80016b8:	40a3      	lsls	r3, r4
 80016ba:	2800      	cmp	r0, #0
 80016bc:	ea43 0302 	orr.w	r3, r3, r2
 80016c0:	bfac      	ite	ge
 80016c2:	f100 4060 	addge.w	r0, r0, #3758096384	@ 0xe0000000
 80016c6:	4a08      	ldrlt	r2, [pc, #32]	@ (80016e8 <HAL_NVIC_SetPriority+0x60>)
 80016c8:	ea4f 1303 	mov.w	r3, r3, lsl #4
 80016cc:	bfb8      	it	lt
 80016ce:	f000 000f 	andlt.w	r0, r0, #15
 80016d2:	b2db      	uxtb	r3, r3
 80016d4:	bfaa      	itet	ge
 80016d6:	f500 4061 	addge.w	r0, r0, #57600	@ 0xe100
 80016da:	5413      	strblt	r3, [r2, r0]
 80016dc:	f880 3300 	strbge.w	r3, [r0, #768]	@ 0x300
 80016e0:	bd30      	pop	{r4, r5, pc}
 80016e2:	bf00      	nop
 80016e4:	e000ed00 	.word	0xe000ed00
 80016e8:	e000ed14 	.word	0xe000ed14

080016ec <HAL_NVIC_EnableIRQ>:
 80016ec:	2800      	cmp	r0, #0
 80016ee:	db07      	blt.n	8001700 <HAL_NVIC_EnableIRQ+0x14>
 80016f0:	0941      	lsrs	r1, r0, #5
 80016f2:	4a04      	ldr	r2, [pc, #16]	@ (8001704 <HAL_NVIC_EnableIRQ+0x18>)
 80016f4:	f000 001f 	and.w	r0, r0, #31
 80016f8:	2301      	movs	r3, #1
 80016fa:	4083      	lsls	r3, r0
 80016fc:	f842 3021 	str.w	r3, [r2, r1, lsl #2]
 8001700:	4770      	bx	lr
 8001702:	bf00      	nop
 8001704:	e000e100 	.word	0xe000e100

08001708 <HAL_SYSTICK_Config>:
 8001708:	3801      	subs	r0, #1
 800170a:	f1b0 7f80 	cmp.w	r0, #16777216	@ 0x1000000
 800170e:	d20b      	bcs.n	8001728 <HAL_SYSTICK_Config+0x20>
 8001710:	f04f 23e0 	mov.w	r3, #3758153728	@ 0xe000e000
 8001714:	4a05      	ldr	r2, [pc, #20]	@ (800172c <HAL_SYSTICK_Config+0x24>)
 8001716:	6158      	str	r0, [r3, #20]
 8001718:	21f0      	movs	r1, #240	@ 0xf0
 800171a:	f882 1023 	strb.w	r1, [r2, #35]	@ 0x23
 800171e:	2000      	movs	r0, #0
 8001720:	2207      	movs	r2, #7
 8001722:	6198      	str	r0, [r3, #24]
 8001724:	611a      	str	r2, [r3, #16]
 8001726:	4770      	bx	lr
 8001728:	2001      	movs	r0, #1
 800172a:	4770      	bx	lr
 800172c:	e000ed00 	.word	0xe000ed00

08001730 <HAL_GPIO_Init>:
 8001730:	e92d 4ff7 	stmdb	sp!, {r0, r1, r2, r4, r5, r6, r7, r8, r9, sl, fp, lr}
 8001734:	f8df 9170 	ldr.w	r9, [pc, #368]	@ 80018a8 <HAL_GPIO_Init+0x178>
 8001738:	4c59      	ldr	r4, [pc, #356]	@ (80018a0 <HAL_GPIO_Init+0x170>)
 800173a:	2300      	movs	r3, #0
 800173c:	680a      	ldr	r2, [r1, #0]
 800173e:	fa32 f503 	lsrs.w	r5, r2, r3
 8001742:	d102      	bne.n	800174a <HAL_GPIO_Init+0x1a>
 8001744:	b003      	add	sp, #12
 8001746:	e8bd 8ff0 	ldmia.w	sp!, {r4, r5, r6, r7, r8, r9, sl, fp, pc}
 800174a:	2501      	movs	r5, #1
 800174c:	fa05 f803 	lsl.w	r8, r5, r3
 8001750:	ea18 0202 	ands.w	r2, r8, r2
 8001754:	f000 809c 	beq.w	8001890 <HAL_GPIO_Init+0x160>
 8001758:	684e      	ldr	r6, [r1, #4]
 800175a:	2703      	movs	r7, #3
 800175c:	f006 0503 	and.w	r5, r6, #3
 8001760:	ea4f 0e43 	mov.w	lr, r3, lsl #1
 8001764:	fa07 fc0e 	lsl.w	ip, r7, lr
 8001768:	1e6f      	subs	r7, r5, #1
 800176a:	2f01      	cmp	r7, #1
 800176c:	ea6f 0c0c 	mvn.w	ip, ip
 8001770:	d834      	bhi.n	80017dc <HAL_GPIO_Init+0xac>
 8001772:	6887      	ldr	r7, [r0, #8]
 8001774:	ea07 0a0c 	and.w	sl, r7, ip
 8001778:	68cf      	ldr	r7, [r1, #12]
 800177a:	fa07 f70e 	lsl.w	r7, r7, lr
 800177e:	ea47 070a 	orr.w	r7, r7, sl
 8001782:	6087      	str	r7, [r0, #8]
 8001784:	6847      	ldr	r7, [r0, #4]
 8001786:	ea27 0808 	bic.w	r8, r7, r8
 800178a:	f3c6 1700 	ubfx	r7, r6, #4, #1
 800178e:	409f      	lsls	r7, r3
 8001790:	ea47 0708 	orr.w	r7, r7, r8
 8001794:	6047      	str	r7, [r0, #4]
 8001796:	68c7      	ldr	r7, [r0, #12]
 8001798:	ea07 080c 	and.w	r8, r7, ip
 800179c:	688f      	ldr	r7, [r1, #8]
 800179e:	fa07 f70e 	lsl.w	r7, r7, lr
 80017a2:	ea47 0708 	orr.w	r7, r7, r8
 80017a6:	2d02      	cmp	r5, #2
 80017a8:	60c7      	str	r7, [r0, #12]
 80017aa:	d119      	bne.n	80017e0 <HAL_GPIO_Init+0xb0>
 80017ac:	ea4f 08d3 	mov.w	r8, r3, lsr #3
 80017b0:	eb00 0888 	add.w	r8, r0, r8, lsl #2
 80017b4:	f003 0a07 	and.w	sl, r3, #7
 80017b8:	f8d8 7020 	ldr.w	r7, [r8, #32]
 80017bc:	ea4f 0a8a 	mov.w	sl, sl, lsl #2
 80017c0:	f04f 0b0f 	mov.w	fp, #15
 80017c4:	fa0b fb0a 	lsl.w	fp, fp, sl
 80017c8:	ea27 0b0b 	bic.w	fp, r7, fp
 80017cc:	690f      	ldr	r7, [r1, #16]
 80017ce:	fa07 f70a 	lsl.w	r7, r7, sl
 80017d2:	ea47 070b 	orr.w	r7, r7, fp
 80017d6:	f8c8 7020 	str.w	r7, [r8, #32]
 80017da:	e001      	b.n	80017e0 <HAL_GPIO_Init+0xb0>
 80017dc:	2d03      	cmp	r5, #3
 80017de:	d1da      	bne.n	8001796 <HAL_GPIO_Init+0x66>
 80017e0:	6807      	ldr	r7, [r0, #0]
 80017e2:	fa05 f50e 	lsl.w	r5, r5, lr
 80017e6:	ea07 070c 	and.w	r7, r7, ip
 80017ea:	433d      	orrs	r5, r7
 80017ec:	f416 3f40 	tst.w	r6, #196608	@ 0x30000
 80017f0:	6005      	str	r5, [r0, #0]
 80017f2:	d04d      	beq.n	8001890 <HAL_GPIO_Init+0x160>
 80017f4:	f8d9 5018 	ldr.w	r5, [r9, #24]
 80017f8:	f045 0501 	orr.w	r5, r5, #1
 80017fc:	f8c9 5018 	str.w	r5, [r9, #24]
 8001800:	f8d9 5018 	ldr.w	r5, [r9, #24]
 8001804:	f023 0703 	bic.w	r7, r3, #3
 8001808:	f107 4780 	add.w	r7, r7, #1073741824	@ 0x40000000
 800180c:	f005 0501 	and.w	r5, r5, #1
 8001810:	f507 3780 	add.w	r7, r7, #65536	@ 0x10000
 8001814:	9501      	str	r5, [sp, #4]
 8001816:	f003 0c03 	and.w	ip, r3, #3
 800181a:	9d01      	ldr	r5, [sp, #4]
 800181c:	68bd      	ldr	r5, [r7, #8]
 800181e:	ea4f 0c8c 	mov.w	ip, ip, lsl #2
 8001822:	f04f 0e0f 	mov.w	lr, #15
 8001826:	fa0e fe0c 	lsl.w	lr, lr, ip
 800182a:	f1b0 4f90 	cmp.w	r0, #1207959552	@ 0x48000000
 800182e:	ea25 0e0e 	bic.w	lr, r5, lr
 8001832:	d02f      	beq.n	8001894 <HAL_GPIO_Init+0x164>
 8001834:	4d1b      	ldr	r5, [pc, #108]	@ (80018a4 <HAL_GPIO_Init+0x174>)
 8001836:	42a8      	cmp	r0, r5
 8001838:	d02e      	beq.n	8001898 <HAL_GPIO_Init+0x168>
 800183a:	f505 6580 	add.w	r5, r5, #1024	@ 0x400
 800183e:	42a8      	cmp	r0, r5
 8001840:	d02c      	beq.n	800189c <HAL_GPIO_Init+0x16c>
 8001842:	f505 6580 	add.w	r5, r5, #1024	@ 0x400
 8001846:	42a8      	cmp	r0, r5
 8001848:	bf14      	ite	ne
 800184a:	2505      	movne	r5, #5
 800184c:	2503      	moveq	r5, #3
 800184e:	fa05 f50c 	lsl.w	r5, r5, ip
 8001852:	ea45 050e 	orr.w	r5, r5, lr
 8001856:	60bd      	str	r5, [r7, #8]
 8001858:	68a5      	ldr	r5, [r4, #8]
 800185a:	43d7      	mvns	r7, r2
 800185c:	f416 1f80 	tst.w	r6, #1048576	@ 0x100000
 8001860:	bf0c      	ite	eq
 8001862:	403d      	andeq	r5, r7
 8001864:	4315      	orrne	r5, r2
 8001866:	60a5      	str	r5, [r4, #8]
 8001868:	68e5      	ldr	r5, [r4, #12]
 800186a:	f416 1f00 	tst.w	r6, #2097152	@ 0x200000
 800186e:	bf0c      	ite	eq
 8001870:	403d      	andeq	r5, r7
 8001872:	4315      	orrne	r5, r2
 8001874:	60e5      	str	r5, [r4, #12]
 8001876:	6865      	ldr	r5, [r4, #4]
 8001878:	f416 3f00 	tst.w	r6, #131072	@ 0x20000
 800187c:	bf0c      	ite	eq
 800187e:	403d      	andeq	r5, r7
 8001880:	4315      	orrne	r5, r2
 8001882:	6065      	str	r5, [r4, #4]
 8001884:	6825      	ldr	r5, [r4, #0]
 8001886:	03f6      	lsls	r6, r6, #15
 8001888:	bf54      	ite	pl
 800188a:	403d      	andpl	r5, r7
 800188c:	4315      	orrmi	r5, r2
 800188e:	6025      	str	r5, [r4, #0]
 8001890:	3301      	adds	r3, #1
 8001892:	e753      	b.n	800173c <HAL_GPIO_Init+0xc>
 8001894:	2500      	movs	r5, #0
 8001896:	e7da      	b.n	800184e <HAL_GPIO_Init+0x11e>
 8001898:	2501      	movs	r5, #1
 800189a:	e7d8      	b.n	800184e <HAL_GPIO_Init+0x11e>
 800189c:	2502      	movs	r5, #2
 800189e:	e7d6      	b.n	800184e <HAL_GPIO_Init+0x11e>
 80018a0:	40010400 	.word	0x40010400
 80018a4:	48000400 	.word	0x48000400
 80018a8:	40021000 	.word	0x40021000

080018ac <HAL_GPIO_ReadPin>:
 80018ac:	6903      	ldr	r3, [r0, #16]
 80018ae:	4219      	tst	r1, r3
 80018b0:	bf14      	ite	ne
 80018b2:	2001      	movne	r0, #1
 80018b4:	2000      	moveq	r0, #0
 80018b6:	4770      	bx	lr

080018b8 <HAL_GPIO_WritePin>:
 80018b8:	b10a      	cbz	r2, 80018be <HAL_GPIO_WritePin+0x6>
 80018ba:	6181      	str	r1, [r0, #24]
 80018bc:	4770      	bx	lr
 80018be:	6281      	str	r1, [r0, #40]	@ 0x28
 80018c0:	4770      	bx	lr
	...

080018c4 <HAL_GPIO_EXTI_IRQHandler>:
 80018c4:	4a04      	ldr	r2, [pc, #16]	@ (80018d8 <HAL_GPIO_EXTI_IRQHandler+0x14>)
 80018c6:	6951      	ldr	r1, [r2, #20]
 80018c8:	4201      	tst	r1, r0
 80018ca:	b508      	push	{r3, lr}
 80018cc:	d002      	beq.n	80018d4 <HAL_GPIO_EXTI_IRQHandler+0x10>
 80018ce:	6150      	str	r0, [r2, #20]
 80018d0:	f7fe fe30 	bl	8000534 <HAL_GPIO_EXTI_Callback>
 80018d4:	bd08      	pop	{r3, pc}
 80018d6:	bf00      	nop
 80018d8:	40010400 	.word	0x40010400

080018dc <HAL_RCC_OscConfig>:
 80018dc:	e92d 47f3 	stmdb	sp!, {r0, r1, r4, r5, r6, r7, r8, r9, sl, lr}
 80018e0:	4605      	mov	r5, r0
 80018e2:	2800      	cmp	r0, #0
 80018e4:	d033      	beq.n	800194e <HAL_RCC_OscConfig+0x72>
 80018e6:	6803      	ldr	r3, [r0, #0]
 80018e8:	07da      	lsls	r2, r3, #31
 80018ea:	d411      	bmi.n	8001910 <HAL_RCC_OscConfig+0x34>
 80018ec:	682b      	ldr	r3, [r5, #0]
 80018ee:	079b      	lsls	r3, r3, #30
 80018f0:	f100 8081 	bmi.w	80019f6 <HAL_RCC_OscConfig+0x11a>
 80018f4:	682b      	ldr	r3, [r5, #0]
 80018f6:	071c      	lsls	r4, r3, #28
 80018f8:	f100 80eb 	bmi.w	8001ad2 <HAL_RCC_OscConfig+0x1f6>
 80018fc:	682b      	ldr	r3, [r5, #0]
 80018fe:	0758      	lsls	r0, r3, #29
 8001900:	f100 8130 	bmi.w	8001b64 <HAL_RCC_OscConfig+0x288>
 8001904:	69eb      	ldr	r3, [r5, #28]
 8001906:	2b00      	cmp	r3, #0
 8001908:	f040 81b5 	bne.w	8001c76 <HAL_RCC_OscConfig+0x39a>
 800190c:	2000      	movs	r0, #0
 800190e:	e047      	b.n	80019a0 <HAL_RCC_OscConfig+0xc4>
 8001910:	4cb0      	ldr	r4, [pc, #704]	@ (8001bd4 <HAL_RCC_OscConfig+0x2f8>)
 8001912:	6863      	ldr	r3, [r4, #4]
 8001914:	f003 030c 	and.w	r3, r3, #12
 8001918:	2b04      	cmp	r3, #4
 800191a:	d007      	beq.n	800192c <HAL_RCC_OscConfig+0x50>
 800191c:	6863      	ldr	r3, [r4, #4]
 800191e:	f003 030c 	and.w	r3, r3, #12
 8001922:	2b08      	cmp	r3, #8
 8001924:	d115      	bne.n	8001952 <HAL_RCC_OscConfig+0x76>
 8001926:	6863      	ldr	r3, [r4, #4]
 8001928:	03df      	lsls	r7, r3, #15
 800192a:	d512      	bpl.n	8001952 <HAL_RCC_OscConfig+0x76>
 800192c:	f44f 3300 	mov.w	r3, #131072	@ 0x20000
 8001930:	fa93 f2a3 	rbit	r2, r3
 8001934:	6821      	ldr	r1, [r4, #0]
 8001936:	fa93 f3a3 	rbit	r3, r3
 800193a:	2201      	movs	r2, #1
 800193c:	fab3 f383 	clz	r3, r3
 8001940:	fa02 f303 	lsl.w	r3, r2, r3
 8001944:	420b      	tst	r3, r1
 8001946:	d0d1      	beq.n	80018ec <HAL_RCC_OscConfig+0x10>
 8001948:	686b      	ldr	r3, [r5, #4]
 800194a:	2b00      	cmp	r3, #0
 800194c:	d1ce      	bne.n	80018ec <HAL_RCC_OscConfig+0x10>
 800194e:	2001      	movs	r0, #1
 8001950:	e026      	b.n	80019a0 <HAL_RCC_OscConfig+0xc4>
 8001952:	686a      	ldr	r2, [r5, #4]
 8001954:	f5b2 3f80 	cmp.w	r2, #65536	@ 0x10000
 8001958:	d125      	bne.n	80019a6 <HAL_RCC_OscConfig+0xca>
 800195a:	6823      	ldr	r3, [r4, #0]
 800195c:	f443 3380 	orr.w	r3, r3, #65536	@ 0x10000
 8001960:	6023      	str	r3, [r4, #0]
 8001962:	6ae3      	ldr	r3, [r4, #44]	@ 0x2c
 8001964:	68a9      	ldr	r1, [r5, #8]
 8001966:	f023 030f 	bic.w	r3, r3, #15
 800196a:	430b      	orrs	r3, r1
 800196c:	62e3      	str	r3, [r4, #44]	@ 0x2c
 800196e:	b352      	cbz	r2, 80019c6 <HAL_RCC_OscConfig+0xea>
 8001970:	f7ff fb62 	bl	8001038 <HAL_GetTick>
 8001974:	f44f 3700 	mov.w	r7, #131072	@ 0x20000
 8001978:	4606      	mov	r6, r0
 800197a:	f04f 0801 	mov.w	r8, #1
 800197e:	fa97 f3a7 	rbit	r3, r7
 8001982:	6822      	ldr	r2, [r4, #0]
 8001984:	fa97 f3a7 	rbit	r3, r7
 8001988:	fab3 f383 	clz	r3, r3
 800198c:	fa08 f303 	lsl.w	r3, r8, r3
 8001990:	4213      	tst	r3, r2
 8001992:	d1ab      	bne.n	80018ec <HAL_RCC_OscConfig+0x10>
 8001994:	f7ff fb50 	bl	8001038 <HAL_GetTick>
 8001998:	1b80      	subs	r0, r0, r6
 800199a:	2864      	cmp	r0, #100	@ 0x64
 800199c:	d9ef      	bls.n	800197e <HAL_RCC_OscConfig+0xa2>
 800199e:	2003      	movs	r0, #3
 80019a0:	b002      	add	sp, #8
 80019a2:	e8bd 87f0 	ldmia.w	sp!, {r4, r5, r6, r7, r8, r9, sl, pc}
 80019a6:	6823      	ldr	r3, [r4, #0]
 80019a8:	b932      	cbnz	r2, 80019b8 <HAL_RCC_OscConfig+0xdc>
 80019aa:	f423 3380 	bic.w	r3, r3, #65536	@ 0x10000
 80019ae:	6023      	str	r3, [r4, #0]
 80019b0:	6823      	ldr	r3, [r4, #0]
 80019b2:	f423 2380 	bic.w	r3, r3, #262144	@ 0x40000
 80019b6:	e7d3      	b.n	8001960 <HAL_RCC_OscConfig+0x84>
 80019b8:	f5b2 2fa0 	cmp.w	r2, #327680	@ 0x50000
 80019bc:	d1f5      	bne.n	80019aa <HAL_RCC_OscConfig+0xce>
 80019be:	f443 2380 	orr.w	r3, r3, #262144	@ 0x40000
 80019c2:	6023      	str	r3, [r4, #0]
 80019c4:	e7c9      	b.n	800195a <HAL_RCC_OscConfig+0x7e>
 80019c6:	f7ff fb37 	bl	8001038 <HAL_GetTick>
 80019ca:	f44f 3700 	mov.w	r7, #131072	@ 0x20000
 80019ce:	4606      	mov	r6, r0
 80019d0:	f04f 0801 	mov.w	r8, #1
 80019d4:	fa97 f3a7 	rbit	r3, r7
 80019d8:	6822      	ldr	r2, [r4, #0]
 80019da:	fa97 f3a7 	rbit	r3, r7
 80019de:	fab3 f383 	clz	r3, r3
 80019e2:	fa08 f303 	lsl.w	r3, r8, r3
 80019e6:	4213      	tst	r3, r2
 80019e8:	d080      	beq.n	80018ec <HAL_RCC_OscConfig+0x10>
 80019ea:	f7ff fb25 	bl	8001038 <HAL_GetTick>
 80019ee:	1b80      	subs	r0, r0, r6
 80019f0:	2864      	cmp	r0, #100	@ 0x64
 80019f2:	d9ef      	bls.n	80019d4 <HAL_RCC_OscConfig+0xf8>
 80019f4:	e7d3      	b.n	800199e <HAL_RCC_OscConfig+0xc2>
 80019f6:	4c77      	ldr	r4, [pc, #476]	@ (8001bd4 <HAL_RCC_OscConfig+0x2f8>)
 80019f8:	6863      	ldr	r3, [r4, #4]
 80019fa:	f013 0f0c 	tst.w	r3, #12
 80019fe:	d007      	beq.n	8001a10 <HAL_RCC_OscConfig+0x134>
 8001a00:	6863      	ldr	r3, [r4, #4]
 8001a02:	f003 030c 	and.w	r3, r3, #12
 8001a06:	2b08      	cmp	r3, #8
 8001a08:	d11f      	bne.n	8001a4a <HAL_RCC_OscConfig+0x16e>
 8001a0a:	6863      	ldr	r3, [r4, #4]
 8001a0c:	03de      	lsls	r6, r3, #15
 8001a0e:	d41c      	bmi.n	8001a4a <HAL_RCC_OscConfig+0x16e>
 8001a10:	2302      	movs	r3, #2
 8001a12:	fa93 f2a3 	rbit	r2, r3
 8001a16:	6821      	ldr	r1, [r4, #0]
 8001a18:	fa93 f3a3 	rbit	r3, r3
 8001a1c:	2201      	movs	r2, #1
 8001a1e:	fab3 f383 	clz	r3, r3
 8001a22:	fa02 f303 	lsl.w	r3, r2, r3
 8001a26:	420b      	tst	r3, r1
 8001a28:	d002      	beq.n	8001a30 <HAL_RCC_OscConfig+0x154>
 8001a2a:	692b      	ldr	r3, [r5, #16]
 8001a2c:	4293      	cmp	r3, r2
 8001a2e:	d18e      	bne.n	800194e <HAL_RCC_OscConfig+0x72>
 8001a30:	6821      	ldr	r1, [r4, #0]
 8001a32:	22f8      	movs	r2, #248	@ 0xf8
 8001a34:	fa92 f2a2 	rbit	r2, r2
 8001a38:	696b      	ldr	r3, [r5, #20]
 8001a3a:	fab2 f282 	clz	r2, r2
 8001a3e:	4093      	lsls	r3, r2
 8001a40:	f021 02f8 	bic.w	r2, r1, #248	@ 0xf8
 8001a44:	4313      	orrs	r3, r2
 8001a46:	6023      	str	r3, [r4, #0]
 8001a48:	e754      	b.n	80018f4 <HAL_RCC_OscConfig+0x18>
 8001a4a:	692a      	ldr	r2, [r5, #16]
 8001a4c:	2601      	movs	r6, #1
 8001a4e:	b1fa      	cbz	r2, 8001a90 <HAL_RCC_OscConfig+0x1b4>
 8001a50:	fa96 f3a6 	rbit	r3, r6
 8001a54:	fab3 f383 	clz	r3, r3
 8001a58:	f103 5384 	add.w	r3, r3, #276824064	@ 0x10800000
 8001a5c:	f503 1384 	add.w	r3, r3, #1081344	@ 0x108000
 8001a60:	009b      	lsls	r3, r3, #2
 8001a62:	f04f 0802 	mov.w	r8, #2
 8001a66:	601e      	str	r6, [r3, #0]
 8001a68:	f7ff fae6 	bl	8001038 <HAL_GetTick>
 8001a6c:	4607      	mov	r7, r0
 8001a6e:	fa98 f3a8 	rbit	r3, r8
 8001a72:	6822      	ldr	r2, [r4, #0]
 8001a74:	fa98 f3a8 	rbit	r3, r8
 8001a78:	fab3 f383 	clz	r3, r3
 8001a7c:	fa06 f303 	lsl.w	r3, r6, r3
 8001a80:	4213      	tst	r3, r2
 8001a82:	d1d5      	bne.n	8001a30 <HAL_RCC_OscConfig+0x154>
 8001a84:	f7ff fad8 	bl	8001038 <HAL_GetTick>
 8001a88:	1bc0      	subs	r0, r0, r7
 8001a8a:	2802      	cmp	r0, #2
 8001a8c:	d9ef      	bls.n	8001a6e <HAL_RCC_OscConfig+0x192>
 8001a8e:	e786      	b.n	800199e <HAL_RCC_OscConfig+0xc2>
 8001a90:	fa96 f3a6 	rbit	r3, r6
 8001a94:	fab3 f383 	clz	r3, r3
 8001a98:	f103 5384 	add.w	r3, r3, #276824064	@ 0x10800000
 8001a9c:	f503 1384 	add.w	r3, r3, #1081344	@ 0x108000
 8001aa0:	009b      	lsls	r3, r3, #2
 8001aa2:	f04f 0802 	mov.w	r8, #2
 8001aa6:	601a      	str	r2, [r3, #0]
 8001aa8:	f7ff fac6 	bl	8001038 <HAL_GetTick>
 8001aac:	4607      	mov	r7, r0
 8001aae:	fa98 f3a8 	rbit	r3, r8
 8001ab2:	6822      	ldr	r2, [r4, #0]
 8001ab4:	fa98 f3a8 	rbit	r3, r8
 8001ab8:	fab3 f383 	clz	r3, r3
 8001abc:	fa06 f303 	lsl.w	r3, r6, r3
 8001ac0:	4213      	tst	r3, r2
 8001ac2:	f43f af17 	beq.w	80018f4 <HAL_RCC_OscConfig+0x18>
 8001ac6:	f7ff fab7 	bl	8001038 <HAL_GetTick>
 8001aca:	1bc0      	subs	r0, r0, r7
 8001acc:	2802      	cmp	r0, #2
 8001ace:	d9ee      	bls.n	8001aae <HAL_RCC_OscConfig+0x1d2>
 8001ad0:	e765      	b.n	800199e <HAL_RCC_OscConfig+0xc2>
 8001ad2:	69aa      	ldr	r2, [r5, #24]
 8001ad4:	4e3f      	ldr	r6, [pc, #252]	@ (8001bd4 <HAL_RCC_OscConfig+0x2f8>)
 8001ad6:	4940      	ldr	r1, [pc, #256]	@ (8001bd8 <HAL_RCC_OscConfig+0x2fc>)
 8001ad8:	2401      	movs	r4, #1
 8001ada:	b30a      	cbz	r2, 8001b20 <HAL_RCC_OscConfig+0x244>
 8001adc:	fa94 f3a4 	rbit	r3, r4
 8001ae0:	fab3 f383 	clz	r3, r3
 8001ae4:	440b      	add	r3, r1
 8001ae6:	009b      	lsls	r3, r3, #2
 8001ae8:	2702      	movs	r7, #2
 8001aea:	601c      	str	r4, [r3, #0]
 8001aec:	f7ff faa4 	bl	8001038 <HAL_GetTick>
 8001af0:	4680      	mov	r8, r0
 8001af2:	fa97 f3a7 	rbit	r3, r7
 8001af6:	fa97 f3a7 	rbit	r3, r7
 8001afa:	fa97 f3a7 	rbit	r3, r7
 8001afe:	6a72      	ldr	r2, [r6, #36]	@ 0x24
 8001b00:	fa97 f3a7 	rbit	r3, r7
 8001b04:	fab3 f383 	clz	r3, r3
 8001b08:	fa04 f303 	lsl.w	r3, r4, r3
 8001b0c:	4213      	tst	r3, r2
 8001b0e:	f47f aef5 	bne.w	80018fc <HAL_RCC_OscConfig+0x20>
 8001b12:	f7ff fa91 	bl	8001038 <HAL_GetTick>
 8001b16:	eba0 0008 	sub.w	r0, r0, r8
 8001b1a:	2802      	cmp	r0, #2
 8001b1c:	d9e9      	bls.n	8001af2 <HAL_RCC_OscConfig+0x216>
 8001b1e:	e73e      	b.n	800199e <HAL_RCC_OscConfig+0xc2>
 8001b20:	fa94 f3a4 	rbit	r3, r4
 8001b24:	fab3 f383 	clz	r3, r3
 8001b28:	440b      	add	r3, r1
 8001b2a:	009b      	lsls	r3, r3, #2
 8001b2c:	2702      	movs	r7, #2
 8001b2e:	601a      	str	r2, [r3, #0]
 8001b30:	f7ff fa82 	bl	8001038 <HAL_GetTick>
 8001b34:	4680      	mov	r8, r0
 8001b36:	fa97 f3a7 	rbit	r3, r7
 8001b3a:	fa97 f3a7 	rbit	r3, r7
 8001b3e:	fa97 f3a7 	rbit	r3, r7
 8001b42:	6a72      	ldr	r2, [r6, #36]	@ 0x24
 8001b44:	fa97 f3a7 	rbit	r3, r7
 8001b48:	fab3 f383 	clz	r3, r3
 8001b4c:	fa04 f303 	lsl.w	r3, r4, r3
 8001b50:	4213      	tst	r3, r2
 8001b52:	f43f aed3 	beq.w	80018fc <HAL_RCC_OscConfig+0x20>
 8001b56:	f7ff fa6f 	bl	8001038 <HAL_GetTick>
 8001b5a:	eba0 0008 	sub.w	r0, r0, r8
 8001b5e:	2802      	cmp	r0, #2
 8001b60:	d9e9      	bls.n	8001b36 <HAL_RCC_OscConfig+0x25a>
 8001b62:	e71c      	b.n	800199e <HAL_RCC_OscConfig+0xc2>
 8001b64:	4c1b      	ldr	r4, [pc, #108]	@ (8001bd4 <HAL_RCC_OscConfig+0x2f8>)
 8001b66:	69e3      	ldr	r3, [r4, #28]
 8001b68:	00d9      	lsls	r1, r3, #3
 8001b6a:	d431      	bmi.n	8001bd0 <HAL_RCC_OscConfig+0x2f4>
 8001b6c:	69e3      	ldr	r3, [r4, #28]
 8001b6e:	f043 5380 	orr.w	r3, r3, #268435456	@ 0x10000000
 8001b72:	61e3      	str	r3, [r4, #28]
 8001b74:	69e3      	ldr	r3, [r4, #28]
 8001b76:	f003 5380 	and.w	r3, r3, #268435456	@ 0x10000000
 8001b7a:	9301      	str	r3, [sp, #4]
 8001b7c:	9b01      	ldr	r3, [sp, #4]
 8001b7e:	2601      	movs	r6, #1
 8001b80:	4f16      	ldr	r7, [pc, #88]	@ (8001bdc <HAL_RCC_OscConfig+0x300>)
 8001b82:	683b      	ldr	r3, [r7, #0]
 8001b84:	05da      	lsls	r2, r3, #23
 8001b86:	d52b      	bpl.n	8001be0 <HAL_RCC_OscConfig+0x304>
 8001b88:	68eb      	ldr	r3, [r5, #12]
 8001b8a:	2b01      	cmp	r3, #1
 8001b8c:	d139      	bne.n	8001c02 <HAL_RCC_OscConfig+0x326>
 8001b8e:	6a23      	ldr	r3, [r4, #32]
 8001b90:	f043 0301 	orr.w	r3, r3, #1
 8001b94:	6223      	str	r3, [r4, #32]
 8001b96:	f7ff fa4f 	bl	8001038 <HAL_GetTick>
 8001b9a:	2702      	movs	r7, #2
 8001b9c:	4680      	mov	r8, r0
 8001b9e:	f04f 0901 	mov.w	r9, #1
 8001ba2:	f241 3a88 	movw	sl, #5000	@ 0x1388
 8001ba6:	fa97 f3a7 	rbit	r3, r7
 8001baa:	fa97 f3a7 	rbit	r3, r7
 8001bae:	6a22      	ldr	r2, [r4, #32]
 8001bb0:	fa97 f3a7 	rbit	r3, r7
 8001bb4:	fab3 f383 	clz	r3, r3
 8001bb8:	fa09 f303 	lsl.w	r3, r9, r3
 8001bbc:	4213      	tst	r3, r2
 8001bbe:	d053      	beq.n	8001c68 <HAL_RCC_OscConfig+0x38c>
 8001bc0:	2e00      	cmp	r6, #0
 8001bc2:	f43f ae9f 	beq.w	8001904 <HAL_RCC_OscConfig+0x28>
 8001bc6:	69e3      	ldr	r3, [r4, #28]
 8001bc8:	f023 5380 	bic.w	r3, r3, #268435456	@ 0x10000000
 8001bcc:	61e3      	str	r3, [r4, #28]
 8001bce:	e699      	b.n	8001904 <HAL_RCC_OscConfig+0x28>
 8001bd0:	2600      	movs	r6, #0
 8001bd2:	e7d5      	b.n	8001b80 <HAL_RCC_OscConfig+0x2a4>
 8001bd4:	40021000 	.word	0x40021000
 8001bd8:	10908120 	.word	0x10908120
 8001bdc:	40007000 	.word	0x40007000
 8001be0:	683b      	ldr	r3, [r7, #0]
 8001be2:	f443 7380 	orr.w	r3, r3, #256	@ 0x100
 8001be6:	603b      	str	r3, [r7, #0]
 8001be8:	f7ff fa26 	bl	8001038 <HAL_GetTick>
 8001bec:	4680      	mov	r8, r0
 8001bee:	683b      	ldr	r3, [r7, #0]
 8001bf0:	05db      	lsls	r3, r3, #23
 8001bf2:	d4c9      	bmi.n	8001b88 <HAL_RCC_OscConfig+0x2ac>
 8001bf4:	f7ff fa20 	bl	8001038 <HAL_GetTick>
 8001bf8:	eba0 0008 	sub.w	r0, r0, r8
 8001bfc:	2864      	cmp	r0, #100	@ 0x64
 8001bfe:	d9f6      	bls.n	8001bee <HAL_RCC_OscConfig+0x312>
 8001c00:	e6cd      	b.n	800199e <HAL_RCC_OscConfig+0xc2>
 8001c02:	bb1b      	cbnz	r3, 8001c4c <HAL_RCC_OscConfig+0x370>
 8001c04:	6a23      	ldr	r3, [r4, #32]
 8001c06:	f023 0301 	bic.w	r3, r3, #1
 8001c0a:	6223      	str	r3, [r4, #32]
 8001c0c:	6a23      	ldr	r3, [r4, #32]
 8001c0e:	f023 0304 	bic.w	r3, r3, #4
 8001c12:	6223      	str	r3, [r4, #32]
 8001c14:	f7ff fa10 	bl	8001038 <HAL_GetTick>
 8001c18:	2702      	movs	r7, #2
 8001c1a:	4680      	mov	r8, r0
 8001c1c:	f04f 0901 	mov.w	r9, #1
 8001c20:	f241 3a88 	movw	sl, #5000	@ 0x1388
 8001c24:	fa97 f3a7 	rbit	r3, r7
 8001c28:	fa97 f3a7 	rbit	r3, r7
 8001c2c:	6a22      	ldr	r2, [r4, #32]
 8001c2e:	fa97 f3a7 	rbit	r3, r7
 8001c32:	fab3 f383 	clz	r3, r3
 8001c36:	fa09 f303 	lsl.w	r3, r9, r3
 8001c3a:	4213      	tst	r3, r2
 8001c3c:	d0c0      	beq.n	8001bc0 <HAL_RCC_OscConfig+0x2e4>
 8001c3e:	f7ff f9fb 	bl	8001038 <HAL_GetTick>
 8001c42:	eba0 0008 	sub.w	r0, r0, r8
 8001c46:	4550      	cmp	r0, sl
 8001c48:	d9ec      	bls.n	8001c24 <HAL_RCC_OscConfig+0x348>
 8001c4a:	e6a8      	b.n	800199e <HAL_RCC_OscConfig+0xc2>
 8001c4c:	2b05      	cmp	r3, #5
 8001c4e:	6a23      	ldr	r3, [r4, #32]
 8001c50:	d103      	bne.n	8001c5a <HAL_RCC_OscConfig+0x37e>
 8001c52:	f043 0304 	orr.w	r3, r3, #4
 8001c56:	6223      	str	r3, [r4, #32]
 8001c58:	e799      	b.n	8001b8e <HAL_RCC_OscConfig+0x2b2>
 8001c5a:	f023 0301 	bic.w	r3, r3, #1
 8001c5e:	6223      	str	r3, [r4, #32]
 8001c60:	6a23      	ldr	r3, [r4, #32]
 8001c62:	f023 0304 	bic.w	r3, r3, #4
 8001c66:	e795      	b.n	8001b94 <HAL_RCC_OscConfig+0x2b8>
 8001c68:	f7ff f9e6 	bl	8001038 <HAL_GetTick>
 8001c6c:	eba0 0008 	sub.w	r0, r0, r8
 8001c70:	4550      	cmp	r0, sl
 8001c72:	d998      	bls.n	8001ba6 <HAL_RCC_OscConfig+0x2ca>
 8001c74:	e693      	b.n	800199e <HAL_RCC_OscConfig+0xc2>
 8001c76:	4c46      	ldr	r4, [pc, #280]	@ (8001d90 <HAL_RCC_OscConfig+0x4b4>)
 8001c78:	6862      	ldr	r2, [r4, #4]
 8001c7a:	f002 020c 	and.w	r2, r2, #12
 8001c7e:	2a08      	cmp	r2, #8
 8001c80:	d074      	beq.n	8001d6c <HAL_RCC_OscConfig+0x490>
 8001c82:	2b02      	cmp	r3, #2
 8001c84:	f04f 7380 	mov.w	r3, #16777216	@ 0x1000000
 8001c88:	d14d      	bne.n	8001d26 <HAL_RCC_OscConfig+0x44a>
 8001c8a:	fa93 f3a3 	rbit	r3, r3
 8001c8e:	fab3 f383 	clz	r3, r3
 8001c92:	f103 5384 	add.w	r3, r3, #276824064	@ 0x10800000
 8001c96:	f503 1384 	add.w	r3, r3, #1081344	@ 0x108000
 8001c9a:	009b      	lsls	r3, r3, #2
 8001c9c:	2200      	movs	r2, #0
 8001c9e:	601a      	str	r2, [r3, #0]
 8001ca0:	f7ff f9ca 	bl	8001038 <HAL_GetTick>
 8001ca4:	f04f 7800 	mov.w	r8, #33554432	@ 0x2000000
 8001ca8:	4607      	mov	r7, r0
 8001caa:	2601      	movs	r6, #1
 8001cac:	fa98 f3a8 	rbit	r3, r8
 8001cb0:	6822      	ldr	r2, [r4, #0]
 8001cb2:	fa98 f3a8 	rbit	r3, r8
 8001cb6:	fab3 f383 	clz	r3, r3
 8001cba:	fa06 f303 	lsl.w	r3, r6, r3
 8001cbe:	4213      	tst	r3, r2
 8001cc0:	d12b      	bne.n	8001d1a <HAL_RCC_OscConfig+0x43e>
 8001cc2:	e9d5 1308 	ldrd	r1, r3, [r5, #32]
 8001cc6:	6862      	ldr	r2, [r4, #4]
 8001cc8:	430b      	orrs	r3, r1
 8001cca:	f422 1274 	bic.w	r2, r2, #3997696	@ 0x3d0000
 8001cce:	4313      	orrs	r3, r2
 8001cd0:	6063      	str	r3, [r4, #4]
 8001cd2:	f04f 7380 	mov.w	r3, #16777216	@ 0x1000000
 8001cd6:	fa93 f3a3 	rbit	r3, r3
 8001cda:	fab3 f383 	clz	r3, r3
 8001cde:	f103 5384 	add.w	r3, r3, #276824064	@ 0x10800000
 8001ce2:	f503 1384 	add.w	r3, r3, #1081344	@ 0x108000
 8001ce6:	009b      	lsls	r3, r3, #2
 8001ce8:	2701      	movs	r7, #1
 8001cea:	601e      	str	r6, [r3, #0]
 8001cec:	f7ff f9a4 	bl	8001038 <HAL_GetTick>
 8001cf0:	f04f 7600 	mov.w	r6, #33554432	@ 0x2000000
 8001cf4:	4605      	mov	r5, r0
 8001cf6:	fa96 f3a6 	rbit	r3, r6
 8001cfa:	6822      	ldr	r2, [r4, #0]
 8001cfc:	fa96 f3a6 	rbit	r3, r6
 8001d00:	fab3 f383 	clz	r3, r3
 8001d04:	fa07 f303 	lsl.w	r3, r7, r3
 8001d08:	4213      	tst	r3, r2
 8001d0a:	f47f adff 	bne.w	800190c <HAL_RCC_OscConfig+0x30>
 8001d0e:	f7ff f993 	bl	8001038 <HAL_GetTick>
 8001d12:	1b40      	subs	r0, r0, r5
 8001d14:	2802      	cmp	r0, #2
 8001d16:	d9ee      	bls.n	8001cf6 <HAL_RCC_OscConfig+0x41a>
 8001d18:	e641      	b.n	800199e <HAL_RCC_OscConfig+0xc2>
 8001d1a:	f7ff f98d 	bl	8001038 <HAL_GetTick>
 8001d1e:	1bc0      	subs	r0, r0, r7
 8001d20:	2802      	cmp	r0, #2
 8001d22:	d9c3      	bls.n	8001cac <HAL_RCC_OscConfig+0x3d0>
 8001d24:	e63b      	b.n	800199e <HAL_RCC_OscConfig+0xc2>
 8001d26:	fa93 f3a3 	rbit	r3, r3
 8001d2a:	fab3 f383 	clz	r3, r3
 8001d2e:	f103 5384 	add.w	r3, r3, #276824064	@ 0x10800000
 8001d32:	f503 1384 	add.w	r3, r3, #1081344	@ 0x108000
 8001d36:	009b      	lsls	r3, r3, #2
 8001d38:	2200      	movs	r2, #0
 8001d3a:	601a      	str	r2, [r3, #0]
 8001d3c:	f7ff f97c 	bl	8001038 <HAL_GetTick>
 8001d40:	f04f 7600 	mov.w	r6, #33554432	@ 0x2000000
 8001d44:	4605      	mov	r5, r0
 8001d46:	2701      	movs	r7, #1
 8001d48:	fa96 f3a6 	rbit	r3, r6
 8001d4c:	6822      	ldr	r2, [r4, #0]
 8001d4e:	fa96 f3a6 	rbit	r3, r6
 8001d52:	fab3 f383 	clz	r3, r3
 8001d56:	fa07 f303 	lsl.w	r3, r7, r3
 8001d5a:	4213      	tst	r3, r2
 8001d5c:	f43f add6 	beq.w	800190c <HAL_RCC_OscConfig+0x30>
 8001d60:	f7ff f96a 	bl	8001038 <HAL_GetTick>
 8001d64:	1b40      	subs	r0, r0, r5
 8001d66:	2802      	cmp	r0, #2
 8001d68:	d9ee      	bls.n	8001d48 <HAL_RCC_OscConfig+0x46c>
 8001d6a:	e618      	b.n	800199e <HAL_RCC_OscConfig+0xc2>
 8001d6c:	2b01      	cmp	r3, #1
 8001d6e:	f43f adee 	beq.w	800194e <HAL_RCC_OscConfig+0x72>
 8001d72:	6860      	ldr	r0, [r4, #4]
 8001d74:	6a2b      	ldr	r3, [r5, #32]
 8001d76:	f400 3280 	and.w	r2, r0, #65536	@ 0x10000
 8001d7a:	429a      	cmp	r2, r3
 8001d7c:	f47f ade7 	bne.w	800194e <HAL_RCC_OscConfig+0x72>
 8001d80:	6a6b      	ldr	r3, [r5, #36]	@ 0x24
 8001d82:	f400 1070 	and.w	r0, r0, #3932160	@ 0x3c0000
 8001d86:	1ac0      	subs	r0, r0, r3
 8001d88:	bf18      	it	ne
 8001d8a:	2001      	movne	r0, #1
 8001d8c:	e608      	b.n	80019a0 <HAL_RCC_OscConfig+0xc4>
 8001d8e:	bf00      	nop
 8001d90:	40021000 	.word	0x40021000

08001d94 <HAL_RCC_GetSysClockFreq>:
 8001d94:	4b0c      	ldr	r3, [pc, #48]	@ (8001dc8 <HAL_RCC_GetSysClockFreq+0x34>)
 8001d96:	685a      	ldr	r2, [r3, #4]
 8001d98:	f002 010c 	and.w	r1, r2, #12
 8001d9c:	2908      	cmp	r1, #8
 8001d9e:	d111      	bne.n	8001dc4 <HAL_RCC_GetSysClockFreq+0x30>
 8001da0:	6adb      	ldr	r3, [r3, #44]	@ 0x2c
 8001da2:	480a      	ldr	r0, [pc, #40]	@ (8001dcc <HAL_RCC_GetSysClockFreq+0x38>)
 8001da4:	f3c2 4183 	ubfx	r1, r2, #18, #4
 8001da8:	03d2      	lsls	r2, r2, #15
 8001daa:	bf44      	itt	mi
 8001dac:	f003 030f 	andmi.w	r3, r3, #15
 8001db0:	4a07      	ldrmi	r2, [pc, #28]	@ (8001dd0 <HAL_RCC_GetSysClockFreq+0x3c>)
 8001db2:	5c40      	ldrb	r0, [r0, r1]
 8001db4:	bf49      	itett	mi
 8001db6:	5cd2      	ldrbmi	r2, [r2, r3]
 8001db8:	4b06      	ldrpl	r3, [pc, #24]	@ (8001dd4 <HAL_RCC_GetSysClockFreq+0x40>)
 8001dba:	4b07      	ldrmi	r3, [pc, #28]	@ (8001dd8 <HAL_RCC_GetSysClockFreq+0x44>)
 8001dbc:	fbb3 f3f2 	udivmi	r3, r3, r2
 8001dc0:	4358      	muls	r0, r3
 8001dc2:	4770      	bx	lr
 8001dc4:	4804      	ldr	r0, [pc, #16]	@ (8001dd8 <HAL_RCC_GetSysClockFreq+0x44>)
 8001dc6:	4770      	bx	lr
 8001dc8:	40021000 	.word	0x40021000
 8001dcc:	08003400 	.word	0x08003400
 8001dd0:	080033f0 	.word	0x080033f0
 8001dd4:	003d0900 	.word	0x003d0900
 8001dd8:	007a1200 	.word	0x007a1200

08001ddc <HAL_RCC_ClockConfig>:
 8001ddc:	e92d 41f0 	stmdb	sp!, {r4, r5, r6, r7, r8, lr}
 8001de0:	460d      	mov	r5, r1
 8001de2:	4604      	mov	r4, r0
 8001de4:	b910      	cbnz	r0, 8001dec <HAL_RCC_ClockConfig+0x10>
 8001de6:	2001      	movs	r0, #1
 8001de8:	e8bd 81f0 	ldmia.w	sp!, {r4, r5, r6, r7, r8, pc}
 8001dec:	4a4a      	ldr	r2, [pc, #296]	@ (8001f18 <HAL_RCC_ClockConfig+0x13c>)
 8001dee:	6813      	ldr	r3, [r2, #0]
 8001df0:	f003 0307 	and.w	r3, r3, #7
 8001df4:	428b      	cmp	r3, r1
 8001df6:	d32e      	bcc.n	8001e56 <HAL_RCC_ClockConfig+0x7a>
 8001df8:	6822      	ldr	r2, [r4, #0]
 8001dfa:	0791      	lsls	r1, r2, #30
 8001dfc:	d436      	bmi.n	8001e6c <HAL_RCC_ClockConfig+0x90>
 8001dfe:	07d2      	lsls	r2, r2, #31
 8001e00:	d43c      	bmi.n	8001e7c <HAL_RCC_ClockConfig+0xa0>
 8001e02:	4a45      	ldr	r2, [pc, #276]	@ (8001f18 <HAL_RCC_ClockConfig+0x13c>)
 8001e04:	6813      	ldr	r3, [r2, #0]
 8001e06:	f003 0307 	and.w	r3, r3, #7
 8001e0a:	42ab      	cmp	r3, r5
 8001e0c:	d870      	bhi.n	8001ef0 <HAL_RCC_ClockConfig+0x114>
 8001e0e:	6822      	ldr	r2, [r4, #0]
 8001e10:	4d42      	ldr	r5, [pc, #264]	@ (8001f1c <HAL_RCC_ClockConfig+0x140>)
 8001e12:	f012 0f04 	tst.w	r2, #4
 8001e16:	d177      	bne.n	8001f08 <HAL_RCC_ClockConfig+0x12c>
 8001e18:	0713      	lsls	r3, r2, #28
 8001e1a:	d506      	bpl.n	8001e2a <HAL_RCC_ClockConfig+0x4e>
 8001e1c:	686b      	ldr	r3, [r5, #4]
 8001e1e:	6922      	ldr	r2, [r4, #16]
 8001e20:	f423 5360 	bic.w	r3, r3, #14336	@ 0x3800
 8001e24:	ea43 03c2 	orr.w	r3, r3, r2, lsl #3
 8001e28:	606b      	str	r3, [r5, #4]
 8001e2a:	f7ff ffb3 	bl	8001d94 <HAL_RCC_GetSysClockFreq>
 8001e2e:	686b      	ldr	r3, [r5, #4]
 8001e30:	22f0      	movs	r2, #240	@ 0xf0
 8001e32:	fa92 f2a2 	rbit	r2, r2
 8001e36:	fab2 f282 	clz	r2, r2
 8001e3a:	f003 03f0 	and.w	r3, r3, #240	@ 0xf0
 8001e3e:	40d3      	lsrs	r3, r2
 8001e40:	4a37      	ldr	r2, [pc, #220]	@ (8001f20 <HAL_RCC_ClockConfig+0x144>)
 8001e42:	5cd3      	ldrb	r3, [r2, r3]
 8001e44:	40d8      	lsrs	r0, r3
 8001e46:	4b37      	ldr	r3, [pc, #220]	@ (8001f24 <HAL_RCC_ClockConfig+0x148>)
 8001e48:	6018      	str	r0, [r3, #0]
 8001e4a:	4b37      	ldr	r3, [pc, #220]	@ (8001f28 <HAL_RCC_ClockConfig+0x14c>)
 8001e4c:	6818      	ldr	r0, [r3, #0]
 8001e4e:	f7ff f8b1 	bl	8000fb4 <HAL_InitTick>
 8001e52:	2000      	movs	r0, #0
 8001e54:	e7c8      	b.n	8001de8 <HAL_RCC_ClockConfig+0xc>
 8001e56:	6813      	ldr	r3, [r2, #0]
 8001e58:	f023 0307 	bic.w	r3, r3, #7
 8001e5c:	430b      	orrs	r3, r1
 8001e5e:	6013      	str	r3, [r2, #0]
 8001e60:	6813      	ldr	r3, [r2, #0]
 8001e62:	f003 0307 	and.w	r3, r3, #7
 8001e66:	428b      	cmp	r3, r1
 8001e68:	d1bd      	bne.n	8001de6 <HAL_RCC_ClockConfig+0xa>
 8001e6a:	e7c5      	b.n	8001df8 <HAL_RCC_ClockConfig+0x1c>
 8001e6c:	492b      	ldr	r1, [pc, #172]	@ (8001f1c <HAL_RCC_ClockConfig+0x140>)
 8001e6e:	68a0      	ldr	r0, [r4, #8]
 8001e70:	684b      	ldr	r3, [r1, #4]
 8001e72:	f023 03f0 	bic.w	r3, r3, #240	@ 0xf0
 8001e76:	4303      	orrs	r3, r0
 8001e78:	604b      	str	r3, [r1, #4]
 8001e7a:	e7c0      	b.n	8001dfe <HAL_RCC_ClockConfig+0x22>
 8001e7c:	6862      	ldr	r2, [r4, #4]
 8001e7e:	4e27      	ldr	r6, [pc, #156]	@ (8001f1c <HAL_RCC_ClockConfig+0x140>)
 8001e80:	2a01      	cmp	r2, #1
 8001e82:	d124      	bne.n	8001ece <HAL_RCC_ClockConfig+0xf2>
 8001e84:	f44f 3300 	mov.w	r3, #131072	@ 0x20000
 8001e88:	fa93 f1a3 	rbit	r1, r3
 8001e8c:	6831      	ldr	r1, [r6, #0]
 8001e8e:	fa93 f3a3 	rbit	r3, r3
 8001e92:	fab3 f383 	clz	r3, r3
 8001e96:	fa02 f303 	lsl.w	r3, r2, r3
 8001e9a:	420b      	tst	r3, r1
 8001e9c:	d0a3      	beq.n	8001de6 <HAL_RCC_ClockConfig+0xa>
 8001e9e:	6873      	ldr	r3, [r6, #4]
 8001ea0:	f023 0303 	bic.w	r3, r3, #3
 8001ea4:	4313      	orrs	r3, r2
 8001ea6:	6073      	str	r3, [r6, #4]
 8001ea8:	f7ff f8c6 	bl	8001038 <HAL_GetTick>
 8001eac:	f241 3888 	movw	r8, #5000	@ 0x1388
 8001eb0:	4607      	mov	r7, r0
 8001eb2:	6873      	ldr	r3, [r6, #4]
 8001eb4:	6862      	ldr	r2, [r4, #4]
 8001eb6:	f003 030c 	and.w	r3, r3, #12
 8001eba:	ebb3 0f82 	cmp.w	r3, r2, lsl #2
 8001ebe:	d0a0      	beq.n	8001e02 <HAL_RCC_ClockConfig+0x26>
 8001ec0:	f7ff f8ba 	bl	8001038 <HAL_GetTick>
 8001ec4:	1bc0      	subs	r0, r0, r7
 8001ec6:	4540      	cmp	r0, r8
 8001ec8:	d9f3      	bls.n	8001eb2 <HAL_RCC_ClockConfig+0xd6>
 8001eca:	2003      	movs	r0, #3
 8001ecc:	e78c      	b.n	8001de8 <HAL_RCC_ClockConfig+0xc>
 8001ece:	2a02      	cmp	r2, #2
 8001ed0:	bf0c      	ite	eq
 8001ed2:	f04f 7300 	moveq.w	r3, #33554432	@ 0x2000000
 8001ed6:	2302      	movne	r3, #2
 8001ed8:	fa93 f1a3 	rbit	r1, r3
 8001edc:	6830      	ldr	r0, [r6, #0]
 8001ede:	fa93 f3a3 	rbit	r3, r3
 8001ee2:	2101      	movs	r1, #1
 8001ee4:	fab3 f383 	clz	r3, r3
 8001ee8:	fa01 f303 	lsl.w	r3, r1, r3
 8001eec:	4203      	tst	r3, r0
 8001eee:	e7d5      	b.n	8001e9c <HAL_RCC_ClockConfig+0xc0>
 8001ef0:	6813      	ldr	r3, [r2, #0]
 8001ef2:	f023 0307 	bic.w	r3, r3, #7
 8001ef6:	432b      	orrs	r3, r5
 8001ef8:	6013      	str	r3, [r2, #0]
 8001efa:	6813      	ldr	r3, [r2, #0]
 8001efc:	f003 0307 	and.w	r3, r3, #7
 8001f00:	42ab      	cmp	r3, r5
 8001f02:	f47f af70 	bne.w	8001de6 <HAL_RCC_ClockConfig+0xa>
 8001f06:	e782      	b.n	8001e0e <HAL_RCC_ClockConfig+0x32>
 8001f08:	686b      	ldr	r3, [r5, #4]
 8001f0a:	68e1      	ldr	r1, [r4, #12]
 8001f0c:	f423 63e0 	bic.w	r3, r3, #1792	@ 0x700
 8001f10:	430b      	orrs	r3, r1
 8001f12:	606b      	str	r3, [r5, #4]
 8001f14:	e780      	b.n	8001e18 <HAL_RCC_ClockConfig+0x3c>
 8001f16:	bf00      	nop
 8001f18:	40022000 	.word	0x40022000
 8001f1c:	40021000 	.word	0x40021000
 8001f20:	080033e0 	.word	0x080033e0
 8001f24:	200001ec 	.word	0x200001ec
 8001f28:	200001f4 	.word	0x200001f4

08001f2c <HAL_RCC_GetPCLK1Freq>:
 8001f2c:	4b08      	ldr	r3, [pc, #32]	@ (8001f50 <HAL_RCC_GetPCLK1Freq+0x24>)
 8001f2e:	f44f 62e0 	mov.w	r2, #1792	@ 0x700
 8001f32:	685b      	ldr	r3, [r3, #4]
 8001f34:	fa92 f2a2 	rbit	r2, r2
 8001f38:	fab2 f282 	clz	r2, r2
 8001f3c:	f403 63e0 	and.w	r3, r3, #1792	@ 0x700
 8001f40:	40d3      	lsrs	r3, r2
 8001f42:	4a04      	ldr	r2, [pc, #16]	@ (8001f54 <HAL_RCC_GetPCLK1Freq+0x28>)
 8001f44:	5cd3      	ldrb	r3, [r2, r3]
 8001f46:	4a04      	ldr	r2, [pc, #16]	@ (8001f58 <HAL_RCC_GetPCLK1Freq+0x2c>)
 8001f48:	6810      	ldr	r0, [r2, #0]
 8001f4a:	40d8      	lsrs	r0, r3
 8001f4c:	4770      	bx	lr
 8001f4e:	bf00      	nop
 8001f50:	40021000 	.word	0x40021000
 8001f54:	080033d8 	.word	0x080033d8
 8001f58:	200001ec 	.word	0x200001ec

08001f5c <HAL_RCC_GetPCLK2Freq>:
 8001f5c:	4b08      	ldr	r3, [pc, #32]	@ (8001f80 <HAL_RCC_GetPCLK2Freq+0x24>)
 8001f5e:	f44f 5260 	mov.w	r2, #14336	@ 0x3800
 8001f62:	685b      	ldr	r3, [r3, #4]
 8001f64:	fa92 f2a2 	rbit	r2, r2
 8001f68:	fab2 f282 	clz	r2, r2
 8001f6c:	f403 5360 	and.w	r3, r3, #14336	@ 0x3800
 8001f70:	40d3      	lsrs	r3, r2
 8001f72:	4a04      	ldr	r2, [pc, #16]	@ (8001f84 <HAL_RCC_GetPCLK2Freq+0x28>)
 8001f74:	5cd3      	ldrb	r3, [r2, r3]
 8001f76:	4a04      	ldr	r2, [pc, #16]	@ (8001f88 <HAL_RCC_GetPCLK2Freq+0x2c>)
 8001f78:	6810      	ldr	r0, [r2, #0]
 8001f7a:	40d8      	lsrs	r0, r3
 8001f7c:	4770      	bx	lr
 8001f7e:	bf00      	nop
 8001f80:	40021000 	.word	0x40021000
 8001f84:	080033d8 	.word	0x080033d8
 8001f88:	200001ec 	.word	0x200001ec

08001f8c <HAL_TIM_Base_Start_IT>:
 8001f8c:	f890 303d 	ldrb.w	r3, [r0, #61]	@ 0x3d
 8001f90:	2b01      	cmp	r3, #1
 8001f92:	d123      	bne.n	8001fdc <HAL_TIM_Base_Start_IT+0x50>
 8001f94:	2302      	movs	r3, #2
 8001f96:	f880 303d 	strb.w	r3, [r0, #61]	@ 0x3d
 8001f9a:	6803      	ldr	r3, [r0, #0]
 8001f9c:	68da      	ldr	r2, [r3, #12]
 8001f9e:	f042 0201 	orr.w	r2, r2, #1
 8001fa2:	60da      	str	r2, [r3, #12]
 8001fa4:	4a0e      	ldr	r2, [pc, #56]	@ (8001fe0 <HAL_TIM_Base_Start_IT+0x54>)
 8001fa6:	4293      	cmp	r3, r2
 8001fa8:	d00a      	beq.n	8001fc0 <HAL_TIM_Base_Start_IT+0x34>
 8001faa:	f1b3 4f80 	cmp.w	r3, #1073741824	@ 0x40000000
 8001fae:	d007      	beq.n	8001fc0 <HAL_TIM_Base_Start_IT+0x34>
 8001fb0:	f5a2 3294 	sub.w	r2, r2, #75776	@ 0x12800
 8001fb4:	4293      	cmp	r3, r2
 8001fb6:	d003      	beq.n	8001fc0 <HAL_TIM_Base_Start_IT+0x34>
 8001fb8:	f502 329e 	add.w	r2, r2, #80896	@ 0x13c00
 8001fbc:	4293      	cmp	r3, r2
 8001fbe:	d107      	bne.n	8001fd0 <HAL_TIM_Base_Start_IT+0x44>
 8001fc0:	6899      	ldr	r1, [r3, #8]
 8001fc2:	4a08      	ldr	r2, [pc, #32]	@ (8001fe4 <HAL_TIM_Base_Start_IT+0x58>)
 8001fc4:	400a      	ands	r2, r1
 8001fc6:	2a06      	cmp	r2, #6
 8001fc8:	d006      	beq.n	8001fd8 <HAL_TIM_Base_Start_IT+0x4c>
 8001fca:	f5b2 3f80 	cmp.w	r2, #65536	@ 0x10000
 8001fce:	d003      	beq.n	8001fd8 <HAL_TIM_Base_Start_IT+0x4c>
 8001fd0:	681a      	ldr	r2, [r3, #0]
 8001fd2:	f042 0201 	orr.w	r2, r2, #1
 8001fd6:	601a      	str	r2, [r3, #0]
 8001fd8:	2000      	movs	r0, #0
 8001fda:	4770      	bx	lr
 8001fdc:	2001      	movs	r0, #1
 8001fde:	4770      	bx	lr
 8001fe0:	40012c00 	.word	0x40012c00
 8001fe4:	00010007 	.word	0x00010007

08001fe8 <HAL_TIM_Base_Stop_IT>:
 8001fe8:	6803      	ldr	r3, [r0, #0]
 8001fea:	68da      	ldr	r2, [r3, #12]
 8001fec:	f022 0201 	bic.w	r2, r2, #1
 8001ff0:	60da      	str	r2, [r3, #12]
 8001ff2:	6a19      	ldr	r1, [r3, #32]
 8001ff4:	f241 1211 	movw	r2, #4369	@ 0x1111
 8001ff8:	4211      	tst	r1, r2
 8001ffa:	d108      	bne.n	800200e <HAL_TIM_Base_Stop_IT+0x26>
 8001ffc:	6a19      	ldr	r1, [r3, #32]
 8001ffe:	f240 4244 	movw	r2, #1092	@ 0x444
 8002002:	4211      	tst	r1, r2
 8002004:	bf02      	ittt	eq
 8002006:	681a      	ldreq	r2, [r3, #0]
 8002008:	f022 0201 	biceq.w	r2, r2, #1
 800200c:	601a      	streq	r2, [r3, #0]
 800200e:	2301      	movs	r3, #1
 8002010:	f880 303d 	strb.w	r3, [r0, #61]	@ 0x3d
 8002014:	2000      	movs	r0, #0
 8002016:	4770      	bx	lr

08002018 <HAL_TIM_OnePulse_MspInit>:
 8002018:	4770      	bx	lr

0800201a <HAL_TIM_OC_DelayElapsedCallback>:
 800201a:	4770      	bx	lr

0800201c <HAL_TIM_IC_CaptureCallback>:
 800201c:	4770      	bx	lr

0800201e <HAL_TIM_PWM_PulseFinishedCallback>:
 800201e:	4770      	bx	lr

08002020 <HAL_TIM_TriggerCallback>:
 8002020:	4770      	bx	lr

08002022 <HAL_TIM_IRQHandler>:
 8002022:	6803      	ldr	r3, [r0, #0]
 8002024:	b570      	push	{r4, r5, r6, lr}
 8002026:	68dd      	ldr	r5, [r3, #12]
 8002028:	691e      	ldr	r6, [r3, #16]
 800202a:	07b2      	lsls	r2, r6, #30
 800202c:	4604      	mov	r4, r0
 800202e:	d50d      	bpl.n	800204c <HAL_TIM_IRQHandler+0x2a>
 8002030:	07a9      	lsls	r1, r5, #30
 8002032:	d50b      	bpl.n	800204c <HAL_TIM_IRQHandler+0x2a>
 8002034:	f06f 0202 	mvn.w	r2, #2
 8002038:	611a      	str	r2, [r3, #16]
 800203a:	2201      	movs	r2, #1
 800203c:	7702      	strb	r2, [r0, #28]
 800203e:	699b      	ldr	r3, [r3, #24]
 8002040:	079a      	lsls	r2, r3, #30
 8002042:	d074      	beq.n	800212e <HAL_TIM_IRQHandler+0x10c>
 8002044:	f7ff ffea 	bl	800201c <HAL_TIM_IC_CaptureCallback>
 8002048:	2300      	movs	r3, #0
 800204a:	7723      	strb	r3, [r4, #28]
 800204c:	0773      	lsls	r3, r6, #29
 800204e:	d510      	bpl.n	8002072 <HAL_TIM_IRQHandler+0x50>
 8002050:	0768      	lsls	r0, r5, #29
 8002052:	d50e      	bpl.n	8002072 <HAL_TIM_IRQHandler+0x50>
 8002054:	6823      	ldr	r3, [r4, #0]
 8002056:	f06f 0204 	mvn.w	r2, #4
 800205a:	611a      	str	r2, [r3, #16]
 800205c:	2202      	movs	r2, #2
 800205e:	7722      	strb	r2, [r4, #28]
 8002060:	699b      	ldr	r3, [r3, #24]
 8002062:	f413 7f40 	tst.w	r3, #768	@ 0x300
 8002066:	4620      	mov	r0, r4
 8002068:	d067      	beq.n	800213a <HAL_TIM_IRQHandler+0x118>
 800206a:	f7ff ffd7 	bl	800201c <HAL_TIM_IC_CaptureCallback>
 800206e:	2300      	movs	r3, #0
 8002070:	7723      	strb	r3, [r4, #28]
 8002072:	0731      	lsls	r1, r6, #28
 8002074:	d50f      	bpl.n	8002096 <HAL_TIM_IRQHandler+0x74>
 8002076:	072a      	lsls	r2, r5, #28
 8002078:	d50d      	bpl.n	8002096 <HAL_TIM_IRQHandler+0x74>
 800207a:	6823      	ldr	r3, [r4, #0]
 800207c:	f06f 0208 	mvn.w	r2, #8
 8002080:	611a      	str	r2, [r3, #16]
 8002082:	2204      	movs	r2, #4
 8002084:	7722      	strb	r2, [r4, #28]
 8002086:	69db      	ldr	r3, [r3, #28]
 8002088:	079b      	lsls	r3, r3, #30
 800208a:	4620      	mov	r0, r4
 800208c:	d05b      	beq.n	8002146 <HAL_TIM_IRQHandler+0x124>
 800208e:	f7ff ffc5 	bl	800201c <HAL_TIM_IC_CaptureCallback>
 8002092:	2300      	movs	r3, #0
 8002094:	7723      	strb	r3, [r4, #28]
 8002096:	06f0      	lsls	r0, r6, #27
 8002098:	d510      	bpl.n	80020bc <HAL_TIM_IRQHandler+0x9a>
 800209a:	06e9      	lsls	r1, r5, #27
 800209c:	d50e      	bpl.n	80020bc <HAL_TIM_IRQHandler+0x9a>
 800209e:	6823      	ldr	r3, [r4, #0]
 80020a0:	f06f 0210 	mvn.w	r2, #16
 80020a4:	611a      	str	r2, [r3, #16]
 80020a6:	2208      	movs	r2, #8
 80020a8:	7722      	strb	r2, [r4, #28]
 80020aa:	69db      	ldr	r3, [r3, #28]
 80020ac:	f413 7f40 	tst.w	r3, #768	@ 0x300
 80020b0:	4620      	mov	r0, r4
 80020b2:	d04e      	beq.n	8002152 <HAL_TIM_IRQHandler+0x130>
 80020b4:	f7ff ffb2 	bl	800201c <HAL_TIM_IC_CaptureCallback>
 80020b8:	2300      	movs	r3, #0
 80020ba:	7723      	strb	r3, [r4, #28]
 80020bc:	07f2      	lsls	r2, r6, #31
 80020be:	d508      	bpl.n	80020d2 <HAL_TIM_IRQHandler+0xb0>
 80020c0:	07eb      	lsls	r3, r5, #31
 80020c2:	d506      	bpl.n	80020d2 <HAL_TIM_IRQHandler+0xb0>
 80020c4:	6823      	ldr	r3, [r4, #0]
 80020c6:	f06f 0201 	mvn.w	r2, #1
 80020ca:	611a      	str	r2, [r3, #16]
 80020cc:	4620      	mov	r0, r4
 80020ce:	f7fe fe93 	bl	8000df8 <HAL_TIM_PeriodElapsedCallback>
 80020d2:	0630      	lsls	r0, r6, #24
 80020d4:	d508      	bpl.n	80020e8 <HAL_TIM_IRQHandler+0xc6>
 80020d6:	0629      	lsls	r1, r5, #24
 80020d8:	d506      	bpl.n	80020e8 <HAL_TIM_IRQHandler+0xc6>
 80020da:	6823      	ldr	r3, [r4, #0]
 80020dc:	f06f 0280 	mvn.w	r2, #128	@ 0x80
 80020e0:	611a      	str	r2, [r3, #16]
 80020e2:	4620      	mov	r0, r4
 80020e4:	f000 f9bf 	bl	8002466 <HAL_TIMEx_BreakCallback>
 80020e8:	05f2      	lsls	r2, r6, #23
 80020ea:	d508      	bpl.n	80020fe <HAL_TIM_IRQHandler+0xdc>
 80020ec:	062b      	lsls	r3, r5, #24
 80020ee:	d506      	bpl.n	80020fe <HAL_TIM_IRQHandler+0xdc>
 80020f0:	6823      	ldr	r3, [r4, #0]
 80020f2:	f46f 7280 	mvn.w	r2, #256	@ 0x100
 80020f6:	611a      	str	r2, [r3, #16]
 80020f8:	4620      	mov	r0, r4
 80020fa:	f000 f9b5 	bl	8002468 <HAL_TIMEx_Break2Callback>
 80020fe:	0670      	lsls	r0, r6, #25
 8002100:	d508      	bpl.n	8002114 <HAL_TIM_IRQHandler+0xf2>
 8002102:	0669      	lsls	r1, r5, #25
 8002104:	d506      	bpl.n	8002114 <HAL_TIM_IRQHandler+0xf2>
 8002106:	6823      	ldr	r3, [r4, #0]
 8002108:	f06f 0240 	mvn.w	r2, #64	@ 0x40
 800210c:	611a      	str	r2, [r3, #16]
 800210e:	4620      	mov	r0, r4
 8002110:	f7ff ff86 	bl	8002020 <HAL_TIM_TriggerCallback>
 8002114:	06b2      	lsls	r2, r6, #26
 8002116:	d522      	bpl.n	800215e <HAL_TIM_IRQHandler+0x13c>
 8002118:	06ab      	lsls	r3, r5, #26
 800211a:	d520      	bpl.n	800215e <HAL_TIM_IRQHandler+0x13c>
 800211c:	6823      	ldr	r3, [r4, #0]
 800211e:	f06f 0220 	mvn.w	r2, #32
 8002122:	4620      	mov	r0, r4
 8002124:	611a      	str	r2, [r3, #16]
 8002126:	e8bd 4070 	ldmia.w	sp!, {r4, r5, r6, lr}
 800212a:	f000 b99b 	b.w	8002464 <HAL_TIMEx_CommutCallback>
 800212e:	f7ff ff74 	bl	800201a <HAL_TIM_OC_DelayElapsedCallback>
 8002132:	4620      	mov	r0, r4
 8002134:	f7ff ff73 	bl	800201e <HAL_TIM_PWM_PulseFinishedCallback>
 8002138:	e786      	b.n	8002048 <HAL_TIM_IRQHandler+0x26>
 800213a:	f7ff ff6e 	bl	800201a <HAL_TIM_OC_DelayElapsedCallback>
 800213e:	4620      	mov	r0, r4
 8002140:	f7ff ff6d 	bl	800201e <HAL_TIM_PWM_PulseFinishedCallback>
 8002144:	e793      	b.n	800206e <HAL_TIM_IRQHandler+0x4c>
 8002146:	f7ff ff68 	bl	800201a <HAL_TIM_OC_DelayElapsedCallback>
 800214a:	4620      	mov	r0, r4
 800214c:	f7ff ff67 	bl	800201e <HAL_TIM_PWM_PulseFinishedCallback>
 8002150:	e79f      	b.n	8002092 <HAL_TIM_IRQHandler+0x70>
 8002152:	f7ff ff62 	bl	800201a <HAL_TIM_OC_DelayElapsedCallback>
 8002156:	4620      	mov	r0, r4
 8002158:	f7ff ff61 	bl	800201e <HAL_TIM_PWM_PulseFinishedCallback>
 800215c:	e7ac      	b.n	80020b8 <HAL_TIM_IRQHandler+0x96>
 800215e:	bd70      	pop	{r4, r5, r6, pc}

08002160 <TIM_Base_SetConfig>:
 8002160:	4a21      	ldr	r2, [pc, #132]	@ (80021e8 <TIM_Base_SetConfig+0x88>)
 8002162:	6803      	ldr	r3, [r0, #0]
 8002164:	4290      	cmp	r0, r2
 8002166:	d006      	beq.n	8002176 <TIM_Base_SetConfig+0x16>
 8002168:	f1b0 4f80 	cmp.w	r0, #1073741824	@ 0x40000000
 800216c:	d003      	beq.n	8002176 <TIM_Base_SetConfig+0x16>
 800216e:	f5a2 3294 	sub.w	r2, r2, #75776	@ 0x12800
 8002172:	4290      	cmp	r0, r2
 8002174:	d108      	bne.n	8002188 <TIM_Base_SetConfig+0x28>
 8002176:	684a      	ldr	r2, [r1, #4]
 8002178:	f023 0370 	bic.w	r3, r3, #112	@ 0x70
 800217c:	4313      	orrs	r3, r2
 800217e:	68ca      	ldr	r2, [r1, #12]
 8002180:	f423 7340 	bic.w	r3, r3, #768	@ 0x300
 8002184:	4313      	orrs	r3, r2
 8002186:	e009      	b.n	800219c <TIM_Base_SetConfig+0x3c>
 8002188:	4a18      	ldr	r2, [pc, #96]	@ (80021ec <TIM_Base_SetConfig+0x8c>)
 800218a:	4290      	cmp	r0, r2
 800218c:	d0f7      	beq.n	800217e <TIM_Base_SetConfig+0x1e>
 800218e:	4a18      	ldr	r2, [pc, #96]	@ (80021f0 <TIM_Base_SetConfig+0x90>)
 8002190:	4290      	cmp	r0, r2
 8002192:	d0f4      	beq.n	800217e <TIM_Base_SetConfig+0x1e>
 8002194:	f502 6280 	add.w	r2, r2, #1024	@ 0x400
 8002198:	4290      	cmp	r0, r2
 800219a:	d0f0      	beq.n	800217e <TIM_Base_SetConfig+0x1e>
 800219c:	694a      	ldr	r2, [r1, #20]
 800219e:	f023 0380 	bic.w	r3, r3, #128	@ 0x80
 80021a2:	4313      	orrs	r3, r2
 80021a4:	6003      	str	r3, [r0, #0]
 80021a6:	688b      	ldr	r3, [r1, #8]
 80021a8:	62c3      	str	r3, [r0, #44]	@ 0x2c
 80021aa:	680b      	ldr	r3, [r1, #0]
 80021ac:	6283      	str	r3, [r0, #40]	@ 0x28
 80021ae:	4b0e      	ldr	r3, [pc, #56]	@ (80021e8 <TIM_Base_SetConfig+0x88>)
 80021b0:	4298      	cmp	r0, r3
 80021b2:	d00b      	beq.n	80021cc <TIM_Base_SetConfig+0x6c>
 80021b4:	f503 53a0 	add.w	r3, r3, #5120	@ 0x1400
 80021b8:	4298      	cmp	r0, r3
 80021ba:	d007      	beq.n	80021cc <TIM_Base_SetConfig+0x6c>
 80021bc:	f503 6380 	add.w	r3, r3, #1024	@ 0x400
 80021c0:	4298      	cmp	r0, r3
 80021c2:	d003      	beq.n	80021cc <TIM_Base_SetConfig+0x6c>
 80021c4:	f503 6380 	add.w	r3, r3, #1024	@ 0x400
 80021c8:	4298      	cmp	r0, r3
 80021ca:	d101      	bne.n	80021d0 <TIM_Base_SetConfig+0x70>
 80021cc:	690b      	ldr	r3, [r1, #16]
 80021ce:	6303      	str	r3, [r0, #48]	@ 0x30
 80021d0:	2301      	movs	r3, #1
 80021d2:	6143      	str	r3, [r0, #20]
 80021d4:	6903      	ldr	r3, [r0, #16]
 80021d6:	07db      	lsls	r3, r3, #31
 80021d8:	d504      	bpl.n	80021e4 <TIM_Base_SetConfig+0x84>
 80021da:	6903      	ldr	r3, [r0, #16]
 80021dc:	f023 0301 	bic.w	r3, r3, #1
 80021e0:	6103      	str	r3, [r0, #16]
 80021e2:	4770      	bx	lr
 80021e4:	4770      	bx	lr
 80021e6:	bf00      	nop
 80021e8:	40012c00 	.word	0x40012c00
 80021ec:	40014000 	.word	0x40014000
 80021f0:	40014400 	.word	0x40014400

080021f4 <HAL_TIM_Base_Init>:
 80021f4:	b510      	push	{r4, lr}
 80021f6:	4604      	mov	r4, r0
 80021f8:	b350      	cbz	r0, 8002250 <HAL_TIM_Base_Init+0x5c>
 80021fa:	f890 303d 	ldrb.w	r3, [r0, #61]	@ 0x3d
 80021fe:	f003 02ff 	and.w	r2, r3, #255	@ 0xff
 8002202:	b91b      	cbnz	r3, 800220c <HAL_TIM_Base_Init+0x18>
 8002204:	f880 203c 	strb.w	r2, [r0, #60]	@ 0x3c
 8002208:	f7fe fdc0 	bl	8000d8c <HAL_TIM_Base_MspInit>
 800220c:	2302      	movs	r3, #2
 800220e:	6820      	ldr	r0, [r4, #0]
 8002210:	f884 303d 	strb.w	r3, [r4, #61]	@ 0x3d
 8002214:	1d21      	adds	r1, r4, #4
 8002216:	f7ff ffa3 	bl	8002160 <TIM_Base_SetConfig>
 800221a:	2301      	movs	r3, #1
 800221c:	f884 3048 	strb.w	r3, [r4, #72]	@ 0x48
 8002220:	2000      	movs	r0, #0
 8002222:	f884 303e 	strb.w	r3, [r4, #62]	@ 0x3e
 8002226:	f884 303f 	strb.w	r3, [r4, #63]	@ 0x3f
 800222a:	f884 3040 	strb.w	r3, [r4, #64]	@ 0x40
 800222e:	f884 3041 	strb.w	r3, [r4, #65]	@ 0x41
 8002232:	f884 3042 	strb.w	r3, [r4, #66]	@ 0x42
 8002236:	f884 3043 	strb.w	r3, [r4, #67]	@ 0x43
 800223a:	f884 3044 	strb.w	r3, [r4, #68]	@ 0x44
 800223e:	f884 3045 	strb.w	r3, [r4, #69]	@ 0x45
 8002242:	f884 3046 	strb.w	r3, [r4, #70]	@ 0x46
 8002246:	f884 3047 	strb.w	r3, [r4, #71]	@ 0x47
 800224a:	f884 303d 	strb.w	r3, [r4, #61]	@ 0x3d
 800224e:	bd10      	pop	{r4, pc}
 8002250:	2001      	movs	r0, #1
 8002252:	e7fc      	b.n	800224e <HAL_TIM_Base_Init+0x5a>

08002254 <HAL_TIM_OnePulse_Init>:
 8002254:	b538      	push	{r3, r4, r5, lr}
 8002256:	460d      	mov	r5, r1
 8002258:	4604      	mov	r4, r0
 800225a:	b330      	cbz	r0, 80022aa <HAL_TIM_OnePulse_Init+0x56>
 800225c:	f890 303d 	ldrb.w	r3, [r0, #61]	@ 0x3d
 8002260:	f003 02ff 	and.w	r2, r3, #255	@ 0xff
 8002264:	b91b      	cbnz	r3, 800226e <HAL_TIM_OnePulse_Init+0x1a>
 8002266:	f880 203c 	strb.w	r2, [r0, #60]	@ 0x3c
 800226a:	f7ff fed5 	bl	8002018 <HAL_TIM_OnePulse_MspInit>
 800226e:	2302      	movs	r3, #2
 8002270:	4621      	mov	r1, r4
 8002272:	f884 303d 	strb.w	r3, [r4, #61]	@ 0x3d
 8002276:	f851 0b04 	ldr.w	r0, [r1], #4
 800227a:	f7ff ff71 	bl	8002160 <TIM_Base_SetConfig>
 800227e:	6803      	ldr	r3, [r0, #0]
 8002280:	f023 0308 	bic.w	r3, r3, #8
 8002284:	6003      	str	r3, [r0, #0]
 8002286:	6803      	ldr	r3, [r0, #0]
 8002288:	432b      	orrs	r3, r5
 800228a:	6003      	str	r3, [r0, #0]
 800228c:	2301      	movs	r3, #1
 800228e:	f884 3048 	strb.w	r3, [r4, #72]	@ 0x48
 8002292:	2000      	movs	r0, #0
 8002294:	f884 303e 	strb.w	r3, [r4, #62]	@ 0x3e
 8002298:	f884 303f 	strb.w	r3, [r4, #63]	@ 0x3f
 800229c:	f884 3044 	strb.w	r3, [r4, #68]	@ 0x44
 80022a0:	f884 3045 	strb.w	r3, [r4, #69]	@ 0x45
 80022a4:	f884 303d 	strb.w	r3, [r4, #61]	@ 0x3d
 80022a8:	bd38      	pop	{r3, r4, r5, pc}
 80022aa:	2001      	movs	r0, #1
 80022ac:	e7fc      	b.n	80022a8 <HAL_TIM_OnePulse_Init+0x54>

080022ae <TIM_ETR_SetConfig>:
 80022ae:	b510      	push	{r4, lr}
 80022b0:	6884      	ldr	r4, [r0, #8]
 80022b2:	430a      	orrs	r2, r1
 80022b4:	f424 447f 	bic.w	r4, r4, #65280	@ 0xff00
 80022b8:	ea42 2203 	orr.w	r2, r2, r3, lsl #8
 80022bc:	4322      	orrs	r2, r4
 80022be:	6082      	str	r2, [r0, #8]
 80022c0:	bd10      	pop	{r4, pc}
	...

080022c4 <HAL_TIM_ConfigClockSource>:
 80022c4:	b538      	push	{r3, r4, r5, lr}
 80022c6:	f890 303c 	ldrb.w	r3, [r0, #60]	@ 0x3c
 80022ca:	2b01      	cmp	r3, #1
 80022cc:	4604      	mov	r4, r0
 80022ce:	f04f 0002 	mov.w	r0, #2
 80022d2:	f000 808c 	beq.w	80023ee <HAL_TIM_ConfigClockSource+0x12a>
 80022d6:	f884 003d 	strb.w	r0, [r4, #61]	@ 0x3d
 80022da:	2201      	movs	r2, #1
 80022dc:	6820      	ldr	r0, [r4, #0]
 80022de:	f884 203c 	strb.w	r2, [r4, #60]	@ 0x3c
 80022e2:	6885      	ldr	r5, [r0, #8]
 80022e4:	4b43      	ldr	r3, [pc, #268]	@ (80023f4 <HAL_TIM_ConfigClockSource+0x130>)
 80022e6:	402b      	ands	r3, r5
 80022e8:	6083      	str	r3, [r0, #8]
 80022ea:	680b      	ldr	r3, [r1, #0]
 80022ec:	2b60      	cmp	r3, #96	@ 0x60
 80022ee:	d04f      	beq.n	8002390 <HAL_TIM_ConfigClockSource+0xcc>
 80022f0:	d832      	bhi.n	8002358 <HAL_TIM_ConfigClockSource+0x94>
 80022f2:	2b40      	cmp	r3, #64	@ 0x40
 80022f4:	d064      	beq.n	80023c0 <HAL_TIM_ConfigClockSource+0xfc>
 80022f6:	d816      	bhi.n	8002326 <HAL_TIM_ConfigClockSource+0x62>
 80022f8:	2b20      	cmp	r3, #32
 80022fa:	d00d      	beq.n	8002318 <HAL_TIM_ConfigClockSource+0x54>
 80022fc:	d80a      	bhi.n	8002314 <HAL_TIM_ConfigClockSource+0x50>
 80022fe:	f033 0110 	bics.w	r1, r3, #16
 8002302:	d009      	beq.n	8002318 <HAL_TIM_ConfigClockSource+0x54>
 8002304:	2301      	movs	r3, #1
 8002306:	f884 303d 	strb.w	r3, [r4, #61]	@ 0x3d
 800230a:	2300      	movs	r3, #0
 800230c:	f884 303c 	strb.w	r3, [r4, #60]	@ 0x3c
 8002310:	4610      	mov	r0, r2
 8002312:	bd38      	pop	{r3, r4, r5, pc}
 8002314:	2b30      	cmp	r3, #48	@ 0x30
 8002316:	d1f5      	bne.n	8002304 <HAL_TIM_ConfigClockSource+0x40>
 8002318:	6882      	ldr	r2, [r0, #8]
 800231a:	f022 0270 	bic.w	r2, r2, #112	@ 0x70
 800231e:	4313      	orrs	r3, r2
 8002320:	f043 0307 	orr.w	r3, r3, #7
 8002324:	e028      	b.n	8002378 <HAL_TIM_ConfigClockSource+0xb4>
 8002326:	2b50      	cmp	r3, #80	@ 0x50
 8002328:	d1ec      	bne.n	8002304 <HAL_TIM_ConfigClockSource+0x40>
 800232a:	684a      	ldr	r2, [r1, #4]
 800232c:	68cd      	ldr	r5, [r1, #12]
 800232e:	6a01      	ldr	r1, [r0, #32]
 8002330:	6a03      	ldr	r3, [r0, #32]
 8002332:	f023 0301 	bic.w	r3, r3, #1
 8002336:	6203      	str	r3, [r0, #32]
 8002338:	6983      	ldr	r3, [r0, #24]
 800233a:	f021 010a 	bic.w	r1, r1, #10
 800233e:	f023 03f0 	bic.w	r3, r3, #240	@ 0xf0
 8002342:	ea43 1305 	orr.w	r3, r3, r5, lsl #4
 8002346:	430a      	orrs	r2, r1
 8002348:	6183      	str	r3, [r0, #24]
 800234a:	6202      	str	r2, [r0, #32]
 800234c:	6883      	ldr	r3, [r0, #8]
 800234e:	f023 0370 	bic.w	r3, r3, #112	@ 0x70
 8002352:	f043 0357 	orr.w	r3, r3, #87	@ 0x57
 8002356:	e00f      	b.n	8002378 <HAL_TIM_ConfigClockSource+0xb4>
 8002358:	f5b3 5f80 	cmp.w	r3, #4096	@ 0x1000
 800235c:	d00d      	beq.n	800237a <HAL_TIM_ConfigClockSource+0xb6>
 800235e:	f5b3 5f00 	cmp.w	r3, #8192	@ 0x2000
 8002362:	d00c      	beq.n	800237e <HAL_TIM_ConfigClockSource+0xba>
 8002364:	2b70      	cmp	r3, #112	@ 0x70
 8002366:	d1cd      	bne.n	8002304 <HAL_TIM_ConfigClockSource+0x40>
 8002368:	68cb      	ldr	r3, [r1, #12]
 800236a:	e9d1 2101 	ldrd	r2, r1, [r1, #4]
 800236e:	f7ff ff9e 	bl	80022ae <TIM_ETR_SetConfig>
 8002372:	6883      	ldr	r3, [r0, #8]
 8002374:	f043 0377 	orr.w	r3, r3, #119	@ 0x77
 8002378:	6083      	str	r3, [r0, #8]
 800237a:	2200      	movs	r2, #0
 800237c:	e7c2      	b.n	8002304 <HAL_TIM_ConfigClockSource+0x40>
 800237e:	68cb      	ldr	r3, [r1, #12]
 8002380:	e9d1 2101 	ldrd	r2, r1, [r1, #4]
 8002384:	f7ff ff93 	bl	80022ae <TIM_ETR_SetConfig>
 8002388:	6883      	ldr	r3, [r0, #8]
 800238a:	f443 4380 	orr.w	r3, r3, #16384	@ 0x4000
 800238e:	e7f3      	b.n	8002378 <HAL_TIM_ConfigClockSource+0xb4>
 8002390:	6a03      	ldr	r3, [r0, #32]
 8002392:	6a02      	ldr	r2, [r0, #32]
 8002394:	684d      	ldr	r5, [r1, #4]
 8002396:	68c9      	ldr	r1, [r1, #12]
 8002398:	f022 0210 	bic.w	r2, r2, #16
 800239c:	6202      	str	r2, [r0, #32]
 800239e:	6982      	ldr	r2, [r0, #24]
 80023a0:	f023 03a0 	bic.w	r3, r3, #160	@ 0xa0
 80023a4:	f422 4270 	bic.w	r2, r2, #61440	@ 0xf000
 80023a8:	ea43 1305 	orr.w	r3, r3, r5, lsl #4
 80023ac:	ea42 3201 	orr.w	r2, r2, r1, lsl #12
 80023b0:	6182      	str	r2, [r0, #24]
 80023b2:	6203      	str	r3, [r0, #32]
 80023b4:	6883      	ldr	r3, [r0, #8]
 80023b6:	f023 0370 	bic.w	r3, r3, #112	@ 0x70
 80023ba:	f043 0367 	orr.w	r3, r3, #103	@ 0x67
 80023be:	e7db      	b.n	8002378 <HAL_TIM_ConfigClockSource+0xb4>
 80023c0:	684a      	ldr	r2, [r1, #4]
 80023c2:	68cd      	ldr	r5, [r1, #12]
 80023c4:	6a01      	ldr	r1, [r0, #32]
 80023c6:	6a03      	ldr	r3, [r0, #32]
 80023c8:	f023 0301 	bic.w	r3, r3, #1
 80023cc:	6203      	str	r3, [r0, #32]
 80023ce:	6983      	ldr	r3, [r0, #24]
 80023d0:	f021 010a 	bic.w	r1, r1, #10
 80023d4:	f023 03f0 	bic.w	r3, r3, #240	@ 0xf0
 80023d8:	ea43 1305 	orr.w	r3, r3, r5, lsl #4
 80023dc:	430a      	orrs	r2, r1
 80023de:	6183      	str	r3, [r0, #24]
 80023e0:	6202      	str	r2, [r0, #32]
 80023e2:	6883      	ldr	r3, [r0, #8]
 80023e4:	f023 0370 	bic.w	r3, r3, #112	@ 0x70
 80023e8:	f043 0347 	orr.w	r3, r3, #71	@ 0x47
 80023ec:	e7c4      	b.n	8002378 <HAL_TIM_ConfigClockSource+0xb4>
 80023ee:	4602      	mov	r2, r0
 80023f0:	e78e      	b.n	8002310 <HAL_TIM_ConfigClockSource+0x4c>
 80023f2:	bf00      	nop
 80023f4:	fffe0088 	.word	0xfffe0088

080023f8 <HAL_TIMEx_MasterConfigSynchronization>:
 80023f8:	b570      	push	{r4, r5, r6, lr}
 80023fa:	f890 303c 	ldrb.w	r3, [r0, #60]	@ 0x3c
 80023fe:	2b01      	cmp	r3, #1
 8002400:	4604      	mov	r4, r0
 8002402:	f04f 0002 	mov.w	r0, #2
 8002406:	d027      	beq.n	8002458 <HAL_TIMEx_MasterConfigSynchronization+0x60>
 8002408:	6823      	ldr	r3, [r4, #0]
 800240a:	4d14      	ldr	r5, [pc, #80]	@ (800245c <HAL_TIMEx_MasterConfigSynchronization+0x64>)
 800240c:	f884 003d 	strb.w	r0, [r4, #61]	@ 0x3d
 8002410:	685a      	ldr	r2, [r3, #4]
 8002412:	6898      	ldr	r0, [r3, #8]
 8002414:	42ab      	cmp	r3, r5
 8002416:	bf02      	ittt	eq
 8002418:	684e      	ldreq	r6, [r1, #4]
 800241a:	f422 0270 	biceq.w	r2, r2, #15728640	@ 0xf00000
 800241e:	4332      	orreq	r2, r6
 8002420:	680e      	ldr	r6, [r1, #0]
 8002422:	f022 0270 	bic.w	r2, r2, #112	@ 0x70
 8002426:	4332      	orrs	r2, r6
 8002428:	42ab      	cmp	r3, r5
 800242a:	605a      	str	r2, [r3, #4]
 800242c:	d009      	beq.n	8002442 <HAL_TIMEx_MasterConfigSynchronization+0x4a>
 800242e:	f1b3 4f80 	cmp.w	r3, #1073741824	@ 0x40000000
 8002432:	d006      	beq.n	8002442 <HAL_TIMEx_MasterConfigSynchronization+0x4a>
 8002434:	4a0a      	ldr	r2, [pc, #40]	@ (8002460 <HAL_TIMEx_MasterConfigSynchronization+0x68>)
 8002436:	4293      	cmp	r3, r2
 8002438:	d003      	beq.n	8002442 <HAL_TIMEx_MasterConfigSynchronization+0x4a>
 800243a:	f502 329e 	add.w	r2, r2, #80896	@ 0x13c00
 800243e:	4293      	cmp	r3, r2
 8002440:	d104      	bne.n	800244c <HAL_TIMEx_MasterConfigSynchronization+0x54>
 8002442:	6889      	ldr	r1, [r1, #8]
 8002444:	f020 0280 	bic.w	r2, r0, #128	@ 0x80
 8002448:	430a      	orrs	r2, r1
 800244a:	609a      	str	r2, [r3, #8]
 800244c:	2301      	movs	r3, #1
 800244e:	2000      	movs	r0, #0
 8002450:	f884 303d 	strb.w	r3, [r4, #61]	@ 0x3d
 8002454:	f884 003c 	strb.w	r0, [r4, #60]	@ 0x3c
 8002458:	bd70      	pop	{r4, r5, r6, pc}
 800245a:	bf00      	nop
 800245c:	40012c00 	.word	0x40012c00
 8002460:	40000400 	.word	0x40000400

08002464 <HAL_TIMEx_CommutCallback>:
 8002464:	4770      	bx	lr

08002466 <HAL_TIMEx_BreakCallback>:
 8002466:	4770      	bx	lr

08002468 <HAL_TIMEx_Break2Callback>:
 8002468:	4770      	bx	lr

0800246a <UART_EndRxTransfer>:
 800246a:	6802      	ldr	r2, [r0, #0]
 800246c:	e852 3f00 	ldrex	r3, [r2]
 8002470:	f423 7390 	bic.w	r3, r3, #288	@ 0x120
 8002474:	e842 3100 	strex	r1, r3, [r2]
 8002478:	6802      	ldr	r2, [r0, #0]
 800247a:	2900      	cmp	r1, #0
 800247c:	d1f5      	bne.n	800246a <UART_EndRxTransfer>
 800247e:	f102 0308 	add.w	r3, r2, #8
 8002482:	e853 3f00 	ldrex	r3, [r3]
 8002486:	f023 0301 	bic.w	r3, r3, #1
 800248a:	f102 0c08 	add.w	ip, r2, #8
 800248e:	e84c 3100 	strex	r1, r3, [ip]
 8002492:	2900      	cmp	r1, #0
 8002494:	d1f3      	bne.n	800247e <UART_EndRxTransfer+0x14>
 8002496:	6e03      	ldr	r3, [r0, #96]	@ 0x60
 8002498:	2b01      	cmp	r3, #1
 800249a:	d107      	bne.n	80024ac <UART_EndRxTransfer+0x42>
 800249c:	e852 3f00 	ldrex	r3, [r2]
 80024a0:	f023 0310 	bic.w	r3, r3, #16
 80024a4:	e842 3100 	strex	r1, r3, [r2]
 80024a8:	2900      	cmp	r1, #0
 80024aa:	d1f7      	bne.n	800249c <UART_EndRxTransfer+0x32>
 80024ac:	2320      	movs	r3, #32
 80024ae:	f8c0 3080 	str.w	r3, [r0, #128]	@ 0x80
 80024b2:	2300      	movs	r3, #0
 80024b4:	6603      	str	r3, [r0, #96]	@ 0x60
 80024b6:	6683      	str	r3, [r0, #104]	@ 0x68
 80024b8:	4770      	bx	lr
	...

080024bc <UART_SetConfig>:
 80024bc:	b538      	push	{r3, r4, r5, lr}
 80024be:	4604      	mov	r4, r0
 80024c0:	69c0      	ldr	r0, [r0, #28]
 80024c2:	6921      	ldr	r1, [r4, #16]
 80024c4:	68a2      	ldr	r2, [r4, #8]
 80024c6:	6823      	ldr	r3, [r4, #0]
 80024c8:	430a      	orrs	r2, r1
 80024ca:	6961      	ldr	r1, [r4, #20]
 80024cc:	681d      	ldr	r5, [r3, #0]
 80024ce:	430a      	orrs	r2, r1
 80024d0:	4941      	ldr	r1, [pc, #260]	@ (80025d8 <UART_SetConfig+0x11c>)
 80024d2:	4302      	orrs	r2, r0
 80024d4:	4029      	ands	r1, r5
 80024d6:	430a      	orrs	r2, r1
 80024d8:	601a      	str	r2, [r3, #0]
 80024da:	685a      	ldr	r2, [r3, #4]
 80024dc:	68e1      	ldr	r1, [r4, #12]
 80024de:	6a25      	ldr	r5, [r4, #32]
 80024e0:	f422 5240 	bic.w	r2, r2, #12288	@ 0x3000
 80024e4:	430a      	orrs	r2, r1
 80024e6:	605a      	str	r2, [r3, #4]
 80024e8:	6899      	ldr	r1, [r3, #8]
 80024ea:	69a2      	ldr	r2, [r4, #24]
 80024ec:	f421 6130 	bic.w	r1, r1, #2816	@ 0xb00
 80024f0:	432a      	orrs	r2, r5
 80024f2:	430a      	orrs	r2, r1
 80024f4:	609a      	str	r2, [r3, #8]
 80024f6:	4a39      	ldr	r2, [pc, #228]	@ (80025dc <UART_SetConfig+0x120>)
 80024f8:	4293      	cmp	r3, r2
 80024fa:	d114      	bne.n	8002526 <UART_SetConfig+0x6a>
 80024fc:	4b38      	ldr	r3, [pc, #224]	@ (80025e0 <UART_SetConfig+0x124>)
 80024fe:	6b1b      	ldr	r3, [r3, #48]	@ 0x30
 8002500:	f003 0303 	and.w	r3, r3, #3
 8002504:	3b01      	subs	r3, #1
 8002506:	2b02      	cmp	r3, #2
 8002508:	d85a      	bhi.n	80025c0 <UART_SetConfig+0x104>
 800250a:	4a36      	ldr	r2, [pc, #216]	@ (80025e4 <UART_SetConfig+0x128>)
 800250c:	5cd3      	ldrb	r3, [r2, r3]
 800250e:	f5b0 4f00 	cmp.w	r0, #32768	@ 0x8000
 8002512:	d12e      	bne.n	8002572 <UART_SetConfig+0xb6>
 8002514:	2b08      	cmp	r3, #8
 8002516:	d851      	bhi.n	80025bc <UART_SetConfig+0x100>
 8002518:	e8df f003 	tbb	[pc, r3]
 800251c:	50150f55 	.word	0x50150f55
 8002520:	50505012 	.word	0x50505012
 8002524:	16          	.byte	0x16
 8002525:	00          	.byte	0x00
 8002526:	4a30      	ldr	r2, [pc, #192]	@ (80025e8 <UART_SetConfig+0x12c>)
 8002528:	4293      	cmp	r3, r2
 800252a:	d049      	beq.n	80025c0 <UART_SetConfig+0x104>
 800252c:	f502 6280 	add.w	r2, r2, #1024	@ 0x400
 8002530:	1a9b      	subs	r3, r3, r2
 8002532:	bf18      	it	ne
 8002534:	2301      	movne	r3, #1
 8002536:	011b      	lsls	r3, r3, #4
 8002538:	e7e9      	b.n	800250e <UART_SetConfig+0x52>
 800253a:	f7ff fd0f 	bl	8001f5c <HAL_RCC_GetPCLK2Freq>
 800253e:	e044      	b.n	80025ca <UART_SetConfig+0x10e>
 8002540:	f7ff fc28 	bl	8001d94 <HAL_RCC_GetSysClockFreq>
 8002544:	e041      	b.n	80025ca <UART_SetConfig+0x10e>
 8002546:	4829      	ldr	r0, [pc, #164]	@ (80025ec <UART_SetConfig+0x130>)
 8002548:	6862      	ldr	r2, [r4, #4]
 800254a:	0853      	lsrs	r3, r2, #1
 800254c:	eb03 0340 	add.w	r3, r3, r0, lsl #1
 8002550:	fbb3 f3f2 	udiv	r3, r3, r2
 8002554:	f64f 72ef 	movw	r2, #65519	@ 0xffef
 8002558:	f1a3 0110 	sub.w	r1, r3, #16
 800255c:	4291      	cmp	r1, r2
 800255e:	d82d      	bhi.n	80025bc <UART_SetConfig+0x100>
 8002560:	f023 020f 	bic.w	r2, r3, #15
 8002564:	6821      	ldr	r1, [r4, #0]
 8002566:	b292      	uxth	r2, r2
 8002568:	f3c3 0342 	ubfx	r3, r3, #1, #3
 800256c:	4313      	orrs	r3, r2
 800256e:	60cb      	str	r3, [r1, #12]
 8002570:	e02d      	b.n	80025ce <UART_SetConfig+0x112>
 8002572:	2b08      	cmp	r3, #8
 8002574:	d822      	bhi.n	80025bc <UART_SetConfig+0x100>
 8002576:	e8df f003 	tbb	[pc, r3]
 800257a:	1814      	.short	0x1814
 800257c:	211b2105 	.word	0x211b2105
 8002580:	2121      	.short	0x2121
 8002582:	1e          	.byte	0x1e
 8002583:	00          	.byte	0x00
 8002584:	4819      	ldr	r0, [pc, #100]	@ (80025ec <UART_SetConfig+0x130>)
 8002586:	6862      	ldr	r2, [r4, #4]
 8002588:	eb00 0352 	add.w	r3, r0, r2, lsr #1
 800258c:	fbb3 f3f2 	udiv	r3, r3, r2
 8002590:	f64f 72ef 	movw	r2, #65519	@ 0xffef
 8002594:	f1a3 0110 	sub.w	r1, r3, #16
 8002598:	4291      	cmp	r1, r2
 800259a:	d80f      	bhi.n	80025bc <UART_SetConfig+0x100>
 800259c:	6822      	ldr	r2, [r4, #0]
 800259e:	60d3      	str	r3, [r2, #12]
 80025a0:	e015      	b.n	80025ce <UART_SetConfig+0x112>
 80025a2:	f7ff fcc3 	bl	8001f2c <HAL_RCC_GetPCLK1Freq>
 80025a6:	b190      	cbz	r0, 80025ce <UART_SetConfig+0x112>
 80025a8:	e7ed      	b.n	8002586 <UART_SetConfig+0xca>
 80025aa:	f7ff fcd7 	bl	8001f5c <HAL_RCC_GetPCLK2Freq>
 80025ae:	e7fa      	b.n	80025a6 <UART_SetConfig+0xea>
 80025b0:	f7ff fbf0 	bl	8001d94 <HAL_RCC_GetSysClockFreq>
 80025b4:	e7f7      	b.n	80025a6 <UART_SetConfig+0xea>
 80025b6:	f44f 4000 	mov.w	r0, #32768	@ 0x8000
 80025ba:	e7e4      	b.n	8002586 <UART_SetConfig+0xca>
 80025bc:	2001      	movs	r0, #1
 80025be:	e007      	b.n	80025d0 <UART_SetConfig+0x114>
 80025c0:	f5b0 4f00 	cmp.w	r0, #32768	@ 0x8000
 80025c4:	d1ed      	bne.n	80025a2 <UART_SetConfig+0xe6>
 80025c6:	f7ff fcb1 	bl	8001f2c <HAL_RCC_GetPCLK1Freq>
 80025ca:	2800      	cmp	r0, #0
 80025cc:	d1bc      	bne.n	8002548 <UART_SetConfig+0x8c>
 80025ce:	2000      	movs	r0, #0
 80025d0:	2300      	movs	r3, #0
 80025d2:	e9c4 331a 	strd	r3, r3, [r4, #104]	@ 0x68
 80025d6:	bd38      	pop	{r3, r4, r5, pc}
 80025d8:	efff69f3 	.word	0xefff69f3
 80025dc:	40013800 	.word	0x40013800
 80025e0:	40021000 	.word	0x40021000
 80025e4:	08003410 	.word	0x08003410
 80025e8:	40004400 	.word	0x40004400
 80025ec:	007a1200 	.word	0x007a1200

080025f0 <UART_AdvFeatureConfig>:
 80025f0:	6a43      	ldr	r3, [r0, #36]	@ 0x24
 80025f2:	071a      	lsls	r2, r3, #28
 80025f4:	b510      	push	{r4, lr}
 80025f6:	d506      	bpl.n	8002606 <UART_AdvFeatureConfig+0x16>
 80025f8:	6801      	ldr	r1, [r0, #0]
 80025fa:	6b44      	ldr	r4, [r0, #52]	@ 0x34
 80025fc:	684a      	ldr	r2, [r1, #4]
 80025fe:	f422 4200 	bic.w	r2, r2, #32768	@ 0x8000
 8002602:	4322      	orrs	r2, r4
 8002604:	604a      	str	r2, [r1, #4]
 8002606:	07dc      	lsls	r4, r3, #31
 8002608:	d506      	bpl.n	8002618 <UART_AdvFeatureConfig+0x28>
 800260a:	6801      	ldr	r1, [r0, #0]
 800260c:	6a84      	ldr	r4, [r0, #40]	@ 0x28
 800260e:	684a      	ldr	r2, [r1, #4]
 8002610:	f422 3200 	bic.w	r2, r2, #131072	@ 0x20000
 8002614:	4322      	orrs	r2, r4
 8002616:	604a      	str	r2, [r1, #4]
 8002618:	0799      	lsls	r1, r3, #30
 800261a:	d506      	bpl.n	800262a <UART_AdvFeatureConfig+0x3a>
 800261c:	6801      	ldr	r1, [r0, #0]
 800261e:	6ac4      	ldr	r4, [r0, #44]	@ 0x2c
 8002620:	684a      	ldr	r2, [r1, #4]
 8002622:	f422 3280 	bic.w	r2, r2, #65536	@ 0x10000
 8002626:	4322      	orrs	r2, r4
 8002628:	604a      	str	r2, [r1, #4]
 800262a:	075a      	lsls	r2, r3, #29
 800262c:	d506      	bpl.n	800263c <UART_AdvFeatureConfig+0x4c>
 800262e:	6801      	ldr	r1, [r0, #0]
 8002630:	6b04      	ldr	r4, [r0, #48]	@ 0x30
 8002632:	684a      	ldr	r2, [r1, #4]
 8002634:	f422 2280 	bic.w	r2, r2, #262144	@ 0x40000
 8002638:	4322      	orrs	r2, r4
 800263a:	604a      	str	r2, [r1, #4]
 800263c:	06dc      	lsls	r4, r3, #27
 800263e:	d506      	bpl.n	800264e <UART_AdvFeatureConfig+0x5e>
 8002640:	6801      	ldr	r1, [r0, #0]
 8002642:	6b84      	ldr	r4, [r0, #56]	@ 0x38
 8002644:	688a      	ldr	r2, [r1, #8]
 8002646:	f422 5280 	bic.w	r2, r2, #4096	@ 0x1000
 800264a:	4322      	orrs	r2, r4
 800264c:	608a      	str	r2, [r1, #8]
 800264e:	0699      	lsls	r1, r3, #26
 8002650:	d506      	bpl.n	8002660 <UART_AdvFeatureConfig+0x70>
 8002652:	6801      	ldr	r1, [r0, #0]
 8002654:	6bc4      	ldr	r4, [r0, #60]	@ 0x3c
 8002656:	688a      	ldr	r2, [r1, #8]
 8002658:	f422 5200 	bic.w	r2, r2, #8192	@ 0x2000
 800265c:	4322      	orrs	r2, r4
 800265e:	608a      	str	r2, [r1, #8]
 8002660:	065a      	lsls	r2, r3, #25
 8002662:	d50f      	bpl.n	8002684 <UART_AdvFeatureConfig+0x94>
 8002664:	6801      	ldr	r1, [r0, #0]
 8002666:	6c04      	ldr	r4, [r0, #64]	@ 0x40
 8002668:	684a      	ldr	r2, [r1, #4]
 800266a:	f422 1280 	bic.w	r2, r2, #1048576	@ 0x100000
 800266e:	4322      	orrs	r2, r4
 8002670:	f5b4 1f80 	cmp.w	r4, #1048576	@ 0x100000
 8002674:	604a      	str	r2, [r1, #4]
 8002676:	d105      	bne.n	8002684 <UART_AdvFeatureConfig+0x94>
 8002678:	684a      	ldr	r2, [r1, #4]
 800267a:	6c44      	ldr	r4, [r0, #68]	@ 0x44
 800267c:	f422 02c0 	bic.w	r2, r2, #6291456	@ 0x600000
 8002680:	4322      	orrs	r2, r4
 8002682:	604a      	str	r2, [r1, #4]
 8002684:	061b      	lsls	r3, r3, #24
 8002686:	d506      	bpl.n	8002696 <UART_AdvFeatureConfig+0xa6>
 8002688:	6802      	ldr	r2, [r0, #0]
 800268a:	6c81      	ldr	r1, [r0, #72]	@ 0x48
 800268c:	6853      	ldr	r3, [r2, #4]
 800268e:	f423 2300 	bic.w	r3, r3, #524288	@ 0x80000
 8002692:	430b      	orrs	r3, r1
 8002694:	6053      	str	r3, [r2, #4]
 8002696:	bd10      	pop	{r4, pc}

08002698 <UART_WaitOnFlagUntilTimeout>:
 8002698:	e92d 43f8 	stmdb	sp!, {r3, r4, r5, r6, r7, r8, r9, lr}
 800269c:	f8dd 9020 	ldr.w	r9, [sp, #32]
 80026a0:	4604      	mov	r4, r0
 80026a2:	460d      	mov	r5, r1
 80026a4:	4617      	mov	r7, r2
 80026a6:	4698      	mov	r8, r3
 80026a8:	6822      	ldr	r2, [r4, #0]
 80026aa:	69d3      	ldr	r3, [r2, #28]
 80026ac:	ea35 0303 	bics.w	r3, r5, r3
 80026b0:	bf0c      	ite	eq
 80026b2:	2301      	moveq	r3, #1
 80026b4:	2300      	movne	r3, #0
 80026b6:	42bb      	cmp	r3, r7
 80026b8:	d001      	beq.n	80026be <UART_WaitOnFlagUntilTimeout+0x26>
 80026ba:	2000      	movs	r0, #0
 80026bc:	e022      	b.n	8002704 <UART_WaitOnFlagUntilTimeout+0x6c>
 80026be:	f1b9 3fff 	cmp.w	r9, #4294967295
 80026c2:	d0f2      	beq.n	80026aa <UART_WaitOnFlagUntilTimeout+0x12>
 80026c4:	f7fe fcb8 	bl	8001038 <HAL_GetTick>
 80026c8:	eba0 0008 	sub.w	r0, r0, r8
 80026cc:	4548      	cmp	r0, r9
 80026ce:	d829      	bhi.n	8002724 <UART_WaitOnFlagUntilTimeout+0x8c>
 80026d0:	f1b9 0f00 	cmp.w	r9, #0
 80026d4:	d026      	beq.n	8002724 <UART_WaitOnFlagUntilTimeout+0x8c>
 80026d6:	6821      	ldr	r1, [r4, #0]
 80026d8:	680b      	ldr	r3, [r1, #0]
 80026da:	075a      	lsls	r2, r3, #29
 80026dc:	d5e4      	bpl.n	80026a8 <UART_WaitOnFlagUntilTimeout+0x10>
 80026de:	2d80      	cmp	r5, #128	@ 0x80
 80026e0:	d0e2      	beq.n	80026a8 <UART_WaitOnFlagUntilTimeout+0x10>
 80026e2:	2d40      	cmp	r5, #64	@ 0x40
 80026e4:	d0e0      	beq.n	80026a8 <UART_WaitOnFlagUntilTimeout+0x10>
 80026e6:	69ce      	ldr	r6, [r1, #28]
 80026e8:	f016 0608 	ands.w	r6, r6, #8
 80026ec:	d00c      	beq.n	8002708 <UART_WaitOnFlagUntilTimeout+0x70>
 80026ee:	2508      	movs	r5, #8
 80026f0:	4620      	mov	r0, r4
 80026f2:	620d      	str	r5, [r1, #32]
 80026f4:	f7ff feb9 	bl	800246a <UART_EndRxTransfer>
 80026f8:	2300      	movs	r3, #0
 80026fa:	f8c4 5084 	str.w	r5, [r4, #132]	@ 0x84
 80026fe:	f884 3078 	strb.w	r3, [r4, #120]	@ 0x78
 8002702:	2001      	movs	r0, #1
 8002704:	e8bd 83f8 	ldmia.w	sp!, {r3, r4, r5, r6, r7, r8, r9, pc}
 8002708:	69cb      	ldr	r3, [r1, #28]
 800270a:	051b      	lsls	r3, r3, #20
 800270c:	d5cc      	bpl.n	80026a8 <UART_WaitOnFlagUntilTimeout+0x10>
 800270e:	f44f 6300 	mov.w	r3, #2048	@ 0x800
 8002712:	620b      	str	r3, [r1, #32]
 8002714:	4620      	mov	r0, r4
 8002716:	f7ff fea8 	bl	800246a <UART_EndRxTransfer>
 800271a:	2320      	movs	r3, #32
 800271c:	f8c4 3084 	str.w	r3, [r4, #132]	@ 0x84
 8002720:	f884 6078 	strb.w	r6, [r4, #120]	@ 0x78
 8002724:	2003      	movs	r0, #3
 8002726:	e7ed      	b.n	8002704 <UART_WaitOnFlagUntilTimeout+0x6c>

08002728 <HAL_UART_Transmit>:
 8002728:	e92d 43f7 	stmdb	sp!, {r0, r1, r2, r4, r5, r6, r7, r8, r9, lr}
 800272c:	4698      	mov	r8, r3
 800272e:	6fc3      	ldr	r3, [r0, #124]	@ 0x7c
 8002730:	2b20      	cmp	r3, #32
 8002732:	4604      	mov	r4, r0
 8002734:	460e      	mov	r6, r1
 8002736:	4617      	mov	r7, r2
 8002738:	d143      	bne.n	80027c2 <HAL_UART_Transmit+0x9a>
 800273a:	2900      	cmp	r1, #0
 800273c:	d043      	beq.n	80027c6 <HAL_UART_Transmit+0x9e>
 800273e:	2a00      	cmp	r2, #0
 8002740:	d041      	beq.n	80027c6 <HAL_UART_Transmit+0x9e>
 8002742:	2321      	movs	r3, #33	@ 0x21
 8002744:	2500      	movs	r5, #0
 8002746:	f8c0 5084 	str.w	r5, [r0, #132]	@ 0x84
 800274a:	67c3      	str	r3, [r0, #124]	@ 0x7c
 800274c:	f7fe fc74 	bl	8001038 <HAL_GetTick>
 8002750:	68a3      	ldr	r3, [r4, #8]
 8002752:	f8a4 7050 	strh.w	r7, [r4, #80]	@ 0x50
 8002756:	f5b3 5f80 	cmp.w	r3, #4096	@ 0x1000
 800275a:	4681      	mov	r9, r0
 800275c:	f8a4 7052 	strh.w	r7, [r4, #82]	@ 0x52
 8002760:	d103      	bne.n	800276a <HAL_UART_Transmit+0x42>
 8002762:	6923      	ldr	r3, [r4, #16]
 8002764:	b90b      	cbnz	r3, 800276a <HAL_UART_Transmit+0x42>
 8002766:	4635      	mov	r5, r6
 8002768:	461e      	mov	r6, r3
 800276a:	f8b4 2052 	ldrh.w	r2, [r4, #82]	@ 0x52
 800276e:	f8cd 8000 	str.w	r8, [sp]
 8002772:	b292      	uxth	r2, r2
 8002774:	464b      	mov	r3, r9
 8002776:	b93a      	cbnz	r2, 8002788 <HAL_UART_Transmit+0x60>
 8002778:	2140      	movs	r1, #64	@ 0x40
 800277a:	4620      	mov	r0, r4
 800277c:	f7ff ff8c 	bl	8002698 <UART_WaitOnFlagUntilTimeout>
 8002780:	2320      	movs	r3, #32
 8002782:	b940      	cbnz	r0, 8002796 <HAL_UART_Transmit+0x6e>
 8002784:	67e3      	str	r3, [r4, #124]	@ 0x7c
 8002786:	e008      	b.n	800279a <HAL_UART_Transmit+0x72>
 8002788:	2200      	movs	r2, #0
 800278a:	2180      	movs	r1, #128	@ 0x80
 800278c:	4620      	mov	r0, r4
 800278e:	f7ff ff83 	bl	8002698 <UART_WaitOnFlagUntilTimeout>
 8002792:	b128      	cbz	r0, 80027a0 <HAL_UART_Transmit+0x78>
 8002794:	2320      	movs	r3, #32
 8002796:	67e3      	str	r3, [r4, #124]	@ 0x7c
 8002798:	2003      	movs	r0, #3
 800279a:	b003      	add	sp, #12
 800279c:	e8bd 83f0 	ldmia.w	sp!, {r4, r5, r6, r7, r8, r9, pc}
 80027a0:	6822      	ldr	r2, [r4, #0]
 80027a2:	b95e      	cbnz	r6, 80027bc <HAL_UART_Transmit+0x94>
 80027a4:	f835 3b02 	ldrh.w	r3, [r5], #2
 80027a8:	f3c3 0308 	ubfx	r3, r3, #0, #9
 80027ac:	8513      	strh	r3, [r2, #40]	@ 0x28
 80027ae:	f8b4 2052 	ldrh.w	r2, [r4, #82]	@ 0x52
 80027b2:	3a01      	subs	r2, #1
 80027b4:	b292      	uxth	r2, r2
 80027b6:	f8a4 2052 	strh.w	r2, [r4, #82]	@ 0x52
 80027ba:	e7d6      	b.n	800276a <HAL_UART_Transmit+0x42>
 80027bc:	f816 3b01 	ldrb.w	r3, [r6], #1
 80027c0:	e7f4      	b.n	80027ac <HAL_UART_Transmit+0x84>
 80027c2:	2002      	movs	r0, #2
 80027c4:	e7e9      	b.n	800279a <HAL_UART_Transmit+0x72>
 80027c6:	2001      	movs	r0, #1
 80027c8:	e7e7      	b.n	800279a <HAL_UART_Transmit+0x72>

080027ca <UART_CheckIdleState>:
 80027ca:	b573      	push	{r0, r1, r4, r5, r6, lr}
 80027cc:	4604      	mov	r4, r0
 80027ce:	2600      	movs	r6, #0
 80027d0:	f8c0 6084 	str.w	r6, [r0, #132]	@ 0x84
 80027d4:	f7fe fc30 	bl	8001038 <HAL_GetTick>
 80027d8:	6823      	ldr	r3, [r4, #0]
 80027da:	681b      	ldr	r3, [r3, #0]
 80027dc:	071a      	lsls	r2, r3, #28
 80027de:	4605      	mov	r5, r0
 80027e0:	d51b      	bpl.n	800281a <UART_CheckIdleState+0x50>
 80027e2:	f06f 437e 	mvn.w	r3, #4261412864	@ 0xfe000000
 80027e6:	9300      	str	r3, [sp, #0]
 80027e8:	4632      	mov	r2, r6
 80027ea:	4603      	mov	r3, r0
 80027ec:	f44f 1100 	mov.w	r1, #2097152	@ 0x200000
 80027f0:	4620      	mov	r0, r4
 80027f2:	f7ff ff51 	bl	8002698 <UART_WaitOnFlagUntilTimeout>
 80027f6:	b180      	cbz	r0, 800281a <UART_CheckIdleState+0x50>
 80027f8:	6822      	ldr	r2, [r4, #0]
 80027fa:	e852 3f00 	ldrex	r3, [r2]
 80027fe:	f023 0380 	bic.w	r3, r3, #128	@ 0x80
 8002802:	e842 3100 	strex	r1, r3, [r2]
 8002806:	2900      	cmp	r1, #0
 8002808:	d1f6      	bne.n	80027f8 <UART_CheckIdleState+0x2e>
 800280a:	2320      	movs	r3, #32
 800280c:	67e3      	str	r3, [r4, #124]	@ 0x7c
 800280e:	2003      	movs	r0, #3
 8002810:	2300      	movs	r3, #0
 8002812:	f884 3078 	strb.w	r3, [r4, #120]	@ 0x78
 8002816:	b002      	add	sp, #8
 8002818:	bd70      	pop	{r4, r5, r6, pc}
 800281a:	6823      	ldr	r3, [r4, #0]
 800281c:	681b      	ldr	r3, [r3, #0]
 800281e:	075b      	lsls	r3, r3, #29
 8002820:	d524      	bpl.n	800286c <UART_CheckIdleState+0xa2>
 8002822:	f06f 437e 	mvn.w	r3, #4261412864	@ 0xfe000000
 8002826:	9300      	str	r3, [sp, #0]
 8002828:	2200      	movs	r2, #0
 800282a:	462b      	mov	r3, r5
 800282c:	f44f 0180 	mov.w	r1, #4194304	@ 0x400000
 8002830:	4620      	mov	r0, r4
 8002832:	f7ff ff31 	bl	8002698 <UART_WaitOnFlagUntilTimeout>
 8002836:	b1c8      	cbz	r0, 800286c <UART_CheckIdleState+0xa2>
 8002838:	6822      	ldr	r2, [r4, #0]
 800283a:	e852 3f00 	ldrex	r3, [r2]
 800283e:	f423 7390 	bic.w	r3, r3, #288	@ 0x120
 8002842:	e842 3100 	strex	r1, r3, [r2]
 8002846:	6822      	ldr	r2, [r4, #0]
 8002848:	2900      	cmp	r1, #0
 800284a:	d1f5      	bne.n	8002838 <UART_CheckIdleState+0x6e>
 800284c:	f102 0308 	add.w	r3, r2, #8
 8002850:	e853 3f00 	ldrex	r3, [r3]
 8002854:	f023 0301 	bic.w	r3, r3, #1
 8002858:	f102 0008 	add.w	r0, r2, #8
 800285c:	e840 3100 	strex	r1, r3, [r0]
 8002860:	2900      	cmp	r1, #0
 8002862:	d1f3      	bne.n	800284c <UART_CheckIdleState+0x82>
 8002864:	2320      	movs	r3, #32
 8002866:	f8c4 3080 	str.w	r3, [r4, #128]	@ 0x80
 800286a:	e7d0      	b.n	800280e <UART_CheckIdleState+0x44>
 800286c:	2320      	movs	r3, #32
 800286e:	2000      	movs	r0, #0
 8002870:	67e3      	str	r3, [r4, #124]	@ 0x7c
 8002872:	f8c4 3080 	str.w	r3, [r4, #128]	@ 0x80
 8002876:	6620      	str	r0, [r4, #96]	@ 0x60
 8002878:	6660      	str	r0, [r4, #100]	@ 0x64
 800287a:	e7c9      	b.n	8002810 <UART_CheckIdleState+0x46>

0800287c <HAL_UART_Init>:
 800287c:	b510      	push	{r4, lr}
 800287e:	4604      	mov	r4, r0
 8002880:	b340      	cbz	r0, 80028d4 <HAL_UART_Init+0x58>
 8002882:	6fc3      	ldr	r3, [r0, #124]	@ 0x7c
 8002884:	b91b      	cbnz	r3, 800288e <HAL_UART_Init+0x12>
 8002886:	f880 3078 	strb.w	r3, [r0, #120]	@ 0x78
 800288a:	f7fe fb37 	bl	8000efc <HAL_UART_MspInit>
 800288e:	6822      	ldr	r2, [r4, #0]
 8002890:	2324      	movs	r3, #36	@ 0x24
 8002892:	67e3      	str	r3, [r4, #124]	@ 0x7c
 8002894:	6813      	ldr	r3, [r2, #0]
 8002896:	f023 0301 	bic.w	r3, r3, #1
 800289a:	6013      	str	r3, [r2, #0]
 800289c:	6a63      	ldr	r3, [r4, #36]	@ 0x24
 800289e:	b113      	cbz	r3, 80028a6 <HAL_UART_Init+0x2a>
 80028a0:	4620      	mov	r0, r4
 80028a2:	f7ff fea5 	bl	80025f0 <UART_AdvFeatureConfig>
 80028a6:	4620      	mov	r0, r4
 80028a8:	f7ff fe08 	bl	80024bc <UART_SetConfig>
 80028ac:	2801      	cmp	r0, #1
 80028ae:	d011      	beq.n	80028d4 <HAL_UART_Init+0x58>
 80028b0:	6823      	ldr	r3, [r4, #0]
 80028b2:	685a      	ldr	r2, [r3, #4]
 80028b4:	f422 4290 	bic.w	r2, r2, #18432	@ 0x4800
 80028b8:	605a      	str	r2, [r3, #4]
 80028ba:	689a      	ldr	r2, [r3, #8]
 80028bc:	f022 022a 	bic.w	r2, r2, #42	@ 0x2a
 80028c0:	609a      	str	r2, [r3, #8]
 80028c2:	681a      	ldr	r2, [r3, #0]
 80028c4:	f042 0201 	orr.w	r2, r2, #1
 80028c8:	4620      	mov	r0, r4
 80028ca:	601a      	str	r2, [r3, #0]
 80028cc:	e8bd 4010 	ldmia.w	sp!, {r4, lr}
 80028d0:	f7ff bf7b 	b.w	80027ca <UART_CheckIdleState>
 80028d4:	2001      	movs	r0, #1
 80028d6:	bd10      	pop	{r4, pc}

080028d8 <siprintf>:
 80028d8:	b40e      	push	{r1, r2, r3}
 80028da:	b510      	push	{r4, lr}
 80028dc:	b09d      	sub	sp, #116	@ 0x74
 80028de:	ab1f      	add	r3, sp, #124	@ 0x7c
 80028e0:	9002      	str	r0, [sp, #8]
 80028e2:	9006      	str	r0, [sp, #24]
 80028e4:	f06f 4100 	mvn.w	r1, #2147483648	@ 0x80000000
 80028e8:	480a      	ldr	r0, [pc, #40]	@ (8002914 <siprintf+0x3c>)
 80028ea:	9107      	str	r1, [sp, #28]
 80028ec:	9104      	str	r1, [sp, #16]
 80028ee:	490a      	ldr	r1, [pc, #40]	@ (8002918 <siprintf+0x40>)
 80028f0:	f853 2b04 	ldr.w	r2, [r3], #4
 80028f4:	9105      	str	r1, [sp, #20]
 80028f6:	2400      	movs	r4, #0
 80028f8:	a902      	add	r1, sp, #8
 80028fa:	6800      	ldr	r0, [r0, #0]
 80028fc:	9301      	str	r3, [sp, #4]
 80028fe:	941b      	str	r4, [sp, #108]	@ 0x6c
 8002900:	f000 f99c 	bl	8002c3c <_svfiprintf_r>
 8002904:	9b02      	ldr	r3, [sp, #8]
 8002906:	701c      	strb	r4, [r3, #0]
 8002908:	b01d      	add	sp, #116	@ 0x74
 800290a:	e8bd 4010 	ldmia.w	sp!, {r4, lr}
 800290e:	b003      	add	sp, #12
 8002910:	4770      	bx	lr
 8002912:	bf00      	nop
 8002914:	200001f8 	.word	0x200001f8
 8002918:	ffff0208 	.word	0xffff0208

0800291c <memset>:
 800291c:	4402      	add	r2, r0
 800291e:	4603      	mov	r3, r0
 8002920:	4293      	cmp	r3, r2
 8002922:	d100      	bne.n	8002926 <memset+0xa>
 8002924:	4770      	bx	lr
 8002926:	f803 1b01 	strb.w	r1, [r3], #1
 800292a:	e7f9      	b.n	8002920 <memset+0x4>

0800292c <__errno>:
 800292c:	4b01      	ldr	r3, [pc, #4]	@ (8002934 <__errno+0x8>)
 800292e:	6818      	ldr	r0, [r3, #0]
 8002930:	4770      	bx	lr
 8002932:	bf00      	nop
 8002934:	200001f8 	.word	0x200001f8

08002938 <__libc_init_array>:
 8002938:	b570      	push	{r4, r5, r6, lr}
 800293a:	4d0d      	ldr	r5, [pc, #52]	@ (8002970 <__libc_init_array+0x38>)
 800293c:	4c0d      	ldr	r4, [pc, #52]	@ (8002974 <__libc_init_array+0x3c>)
 800293e:	1b64      	subs	r4, r4, r5
 8002940:	10a4      	asrs	r4, r4, #2
 8002942:	2600      	movs	r6, #0
 8002944:	42a6      	cmp	r6, r4
 8002946:	d109      	bne.n	800295c <__libc_init_array+0x24>
 8002948:	4d0b      	ldr	r5, [pc, #44]	@ (8002978 <__libc_init_array+0x40>)
 800294a:	4c0c      	ldr	r4, [pc, #48]	@ (800297c <__libc_init_array+0x44>)
 800294c:	f000 fc6c 	bl	8003228 <_init>
 8002950:	1b64      	subs	r4, r4, r5
 8002952:	10a4      	asrs	r4, r4, #2
 8002954:	2600      	movs	r6, #0
 8002956:	42a6      	cmp	r6, r4
 8002958:	d105      	bne.n	8002966 <__libc_init_array+0x2e>
 800295a:	bd70      	pop	{r4, r5, r6, pc}
 800295c:	f855 3b04 	ldr.w	r3, [r5], #4
 8002960:	4798      	blx	r3
 8002962:	3601      	adds	r6, #1
 8002964:	e7ee      	b.n	8002944 <__libc_init_array+0xc>
 8002966:	f855 3b04 	ldr.w	r3, [r5], #4
 800296a:	4798      	blx	r3
 800296c:	3601      	adds	r6, #1
 800296e:	e7f2      	b.n	8002956 <__libc_init_array+0x1e>
 8002970:	0800341c 	.word	0x0800341c
 8002974:	0800341c 	.word	0x0800341c
 8002978:	0800341c 	.word	0x0800341c
 800297c:	08003420 	.word	0x08003420

08002980 <__retarget_lock_acquire_recursive>:
 8002980:	4770      	bx	lr

08002982 <__retarget_lock_release_recursive>:
 8002982:	4770      	bx	lr

08002984 <strcpy>:
 8002984:	4603      	mov	r3, r0
 8002986:	f811 2b01 	ldrb.w	r2, [r1], #1
 800298a:	f803 2b01 	strb.w	r2, [r3], #1
 800298e:	2a00      	cmp	r2, #0
 8002990:	d1f9      	bne.n	8002986 <strcpy+0x2>
 8002992:	4770      	bx	lr

08002994 <_free_r>:
 8002994:	b538      	push	{r3, r4, r5, lr}
 8002996:	4605      	mov	r5, r0
 8002998:	2900      	cmp	r1, #0
 800299a:	d041      	beq.n	8002a20 <_free_r+0x8c>
 800299c:	f851 3c04 	ldr.w	r3, [r1, #-4]
 80029a0:	1f0c      	subs	r4, r1, #4
 80029a2:	2b00      	cmp	r3, #0
 80029a4:	bfb8      	it	lt
 80029a6:	18e4      	addlt	r4, r4, r3
 80029a8:	f000 f8e0 	bl	8002b6c <__malloc_lock>
 80029ac:	4a1d      	ldr	r2, [pc, #116]	@ (8002a24 <_free_r+0x90>)
 80029ae:	6813      	ldr	r3, [r2, #0]
 80029b0:	b933      	cbnz	r3, 80029c0 <_free_r+0x2c>
 80029b2:	6063      	str	r3, [r4, #4]
 80029b4:	6014      	str	r4, [r2, #0]
 80029b6:	4628      	mov	r0, r5
 80029b8:	e8bd 4038 	ldmia.w	sp!, {r3, r4, r5, lr}
 80029bc:	f000 b8dc 	b.w	8002b78 <__malloc_unlock>
 80029c0:	42a3      	cmp	r3, r4
 80029c2:	d908      	bls.n	80029d6 <_free_r+0x42>
 80029c4:	6820      	ldr	r0, [r4, #0]
 80029c6:	1821      	adds	r1, r4, r0
 80029c8:	428b      	cmp	r3, r1
 80029ca:	bf01      	itttt	eq
 80029cc:	6819      	ldreq	r1, [r3, #0]
 80029ce:	685b      	ldreq	r3, [r3, #4]
 80029d0:	1809      	addeq	r1, r1, r0
 80029d2:	6021      	streq	r1, [r4, #0]
 80029d4:	e7ed      	b.n	80029b2 <_free_r+0x1e>
 80029d6:	461a      	mov	r2, r3
 80029d8:	685b      	ldr	r3, [r3, #4]
 80029da:	b10b      	cbz	r3, 80029e0 <_free_r+0x4c>
 80029dc:	42a3      	cmp	r3, r4
 80029de:	d9fa      	bls.n	80029d6 <_free_r+0x42>
 80029e0:	6811      	ldr	r1, [r2, #0]
 80029e2:	1850      	adds	r0, r2, r1
 80029e4:	42a0      	cmp	r0, r4
 80029e6:	d10b      	bne.n	8002a00 <_free_r+0x6c>
 80029e8:	6820      	ldr	r0, [r4, #0]
 80029ea:	4401      	add	r1, r0
 80029ec:	1850      	adds	r0, r2, r1
 80029ee:	4283      	cmp	r3, r0
 80029f0:	6011      	str	r1, [r2, #0]
 80029f2:	d1e0      	bne.n	80029b6 <_free_r+0x22>
 80029f4:	6818      	ldr	r0, [r3, #0]
 80029f6:	685b      	ldr	r3, [r3, #4]
 80029f8:	6053      	str	r3, [r2, #4]
 80029fa:	4408      	add	r0, r1
 80029fc:	6010      	str	r0, [r2, #0]
 80029fe:	e7da      	b.n	80029b6 <_free_r+0x22>
 8002a00:	d902      	bls.n	8002a08 <_free_r+0x74>
 8002a02:	230c      	movs	r3, #12
 8002a04:	602b      	str	r3, [r5, #0]
 8002a06:	e7d6      	b.n	80029b6 <_free_r+0x22>
 8002a08:	6820      	ldr	r0, [r4, #0]
 8002a0a:	1821      	adds	r1, r4, r0
 8002a0c:	428b      	cmp	r3, r1
 8002a0e:	bf04      	itt	eq
 8002a10:	6819      	ldreq	r1, [r3, #0]
 8002a12:	685b      	ldreq	r3, [r3, #4]
 8002a14:	6063      	str	r3, [r4, #4]
 8002a16:	bf04      	itt	eq
 8002a18:	1809      	addeq	r1, r1, r0
 8002a1a:	6021      	streq	r1, [r4, #0]
 8002a1c:	6054      	str	r4, [r2, #4]
 8002a1e:	e7ca      	b.n	80029b6 <_free_r+0x22>
 8002a20:	bd38      	pop	{r3, r4, r5, pc}
 8002a22:	bf00      	nop
 8002a24:	200005cc 	.word	0x200005cc

08002a28 <sbrk_aligned>:
 8002a28:	b570      	push	{r4, r5, r6, lr}
 8002a2a:	4e0f      	ldr	r6, [pc, #60]	@ (8002a68 <sbrk_aligned+0x40>)
 8002a2c:	460c      	mov	r4, r1
 8002a2e:	6831      	ldr	r1, [r6, #0]
 8002a30:	4605      	mov	r5, r0
 8002a32:	b911      	cbnz	r1, 8002a3a <sbrk_aligned+0x12>
 8002a34:	f000 fba4 	bl	8003180 <_sbrk_r>
 8002a38:	6030      	str	r0, [r6, #0]
 8002a3a:	4621      	mov	r1, r4
 8002a3c:	4628      	mov	r0, r5
 8002a3e:	f000 fb9f 	bl	8003180 <_sbrk_r>
 8002a42:	1c43      	adds	r3, r0, #1
 8002a44:	d103      	bne.n	8002a4e <sbrk_aligned+0x26>
 8002a46:	f04f 34ff 	mov.w	r4, #4294967295
 8002a4a:	4620      	mov	r0, r4
 8002a4c:	bd70      	pop	{r4, r5, r6, pc}
 8002a4e:	1cc4      	adds	r4, r0, #3
 8002a50:	f024 0403 	bic.w	r4, r4, #3
 8002a54:	42a0      	cmp	r0, r4
 8002a56:	d0f8      	beq.n	8002a4a <sbrk_aligned+0x22>
 8002a58:	1a21      	subs	r1, r4, r0
 8002a5a:	4628      	mov	r0, r5
 8002a5c:	f000 fb90 	bl	8003180 <_sbrk_r>
 8002a60:	3001      	adds	r0, #1
 8002a62:	d1f2      	bne.n	8002a4a <sbrk_aligned+0x22>
 8002a64:	e7ef      	b.n	8002a46 <sbrk_aligned+0x1e>
 8002a66:	bf00      	nop
 8002a68:	200005c8 	.word	0x200005c8

08002a6c <_malloc_r>:
 8002a6c:	e92d 43f8 	stmdb	sp!, {r3, r4, r5, r6, r7, r8, r9, lr}
 8002a70:	1ccd      	adds	r5, r1, #3
 8002a72:	f025 0503 	bic.w	r5, r5, #3
 8002a76:	3508      	adds	r5, #8
 8002a78:	2d0c      	cmp	r5, #12
 8002a7a:	bf38      	it	cc
 8002a7c:	250c      	movcc	r5, #12
 8002a7e:	2d00      	cmp	r5, #0
 8002a80:	4606      	mov	r6, r0
 8002a82:	db01      	blt.n	8002a88 <_malloc_r+0x1c>
 8002a84:	42a9      	cmp	r1, r5
 8002a86:	d904      	bls.n	8002a92 <_malloc_r+0x26>
 8002a88:	230c      	movs	r3, #12
 8002a8a:	6033      	str	r3, [r6, #0]
 8002a8c:	2000      	movs	r0, #0
 8002a8e:	e8bd 83f8 	ldmia.w	sp!, {r3, r4, r5, r6, r7, r8, r9, pc}
 8002a92:	f8df 80d4 	ldr.w	r8, [pc, #212]	@ 8002b68 <_malloc_r+0xfc>
 8002a96:	f000 f869 	bl	8002b6c <__malloc_lock>
 8002a9a:	f8d8 3000 	ldr.w	r3, [r8]
 8002a9e:	461c      	mov	r4, r3
 8002aa0:	bb44      	cbnz	r4, 8002af4 <_malloc_r+0x88>
 8002aa2:	4629      	mov	r1, r5
 8002aa4:	4630      	mov	r0, r6
 8002aa6:	f7ff ffbf 	bl	8002a28 <sbrk_aligned>
 8002aaa:	1c43      	adds	r3, r0, #1
 8002aac:	4604      	mov	r4, r0
 8002aae:	d158      	bne.n	8002b62 <_malloc_r+0xf6>
 8002ab0:	f8d8 4000 	ldr.w	r4, [r8]
 8002ab4:	4627      	mov	r7, r4
 8002ab6:	2f00      	cmp	r7, #0
 8002ab8:	d143      	bne.n	8002b42 <_malloc_r+0xd6>
 8002aba:	2c00      	cmp	r4, #0
 8002abc:	d04b      	beq.n	8002b56 <_malloc_r+0xea>
 8002abe:	6823      	ldr	r3, [r4, #0]
 8002ac0:	4639      	mov	r1, r7
 8002ac2:	4630      	mov	r0, r6
 8002ac4:	eb04 0903 	add.w	r9, r4, r3
 8002ac8:	f000 fb5a 	bl	8003180 <_sbrk_r>
 8002acc:	4581      	cmp	r9, r0
 8002ace:	d142      	bne.n	8002b56 <_malloc_r+0xea>
 8002ad0:	6821      	ldr	r1, [r4, #0]
 8002ad2:	1a6d      	subs	r5, r5, r1
 8002ad4:	4629      	mov	r1, r5
 8002ad6:	4630      	mov	r0, r6
 8002ad8:	f7ff ffa6 	bl	8002a28 <sbrk_aligned>
 8002adc:	3001      	adds	r0, #1
 8002ade:	d03a      	beq.n	8002b56 <_malloc_r+0xea>
 8002ae0:	6823      	ldr	r3, [r4, #0]
 8002ae2:	442b      	add	r3, r5
 8002ae4:	6023      	str	r3, [r4, #0]
 8002ae6:	f8d8 3000 	ldr.w	r3, [r8]
 8002aea:	685a      	ldr	r2, [r3, #4]
 8002aec:	bb62      	cbnz	r2, 8002b48 <_malloc_r+0xdc>
 8002aee:	f8c8 7000 	str.w	r7, [r8]
 8002af2:	e00f      	b.n	8002b14 <_malloc_r+0xa8>
 8002af4:	6822      	ldr	r2, [r4, #0]
 8002af6:	1b52      	subs	r2, r2, r5
 8002af8:	d420      	bmi.n	8002b3c <_malloc_r+0xd0>
 8002afa:	2a0b      	cmp	r2, #11
 8002afc:	d917      	bls.n	8002b2e <_malloc_r+0xc2>
 8002afe:	1961      	adds	r1, r4, r5
 8002b00:	42a3      	cmp	r3, r4
 8002b02:	6025      	str	r5, [r4, #0]
 8002b04:	bf18      	it	ne
 8002b06:	6059      	strne	r1, [r3, #4]
 8002b08:	6863      	ldr	r3, [r4, #4]
 8002b0a:	bf08      	it	eq
 8002b0c:	f8c8 1000 	streq.w	r1, [r8]
 8002b10:	5162      	str	r2, [r4, r5]
 8002b12:	604b      	str	r3, [r1, #4]
 8002b14:	4630      	mov	r0, r6
 8002b16:	f000 f82f 	bl	8002b78 <__malloc_unlock>
 8002b1a:	f104 000b 	add.w	r0, r4, #11
 8002b1e:	1d23      	adds	r3, r4, #4
 8002b20:	f020 0007 	bic.w	r0, r0, #7
 8002b24:	1ac2      	subs	r2, r0, r3
 8002b26:	bf1c      	itt	ne
 8002b28:	1a1b      	subne	r3, r3, r0
 8002b2a:	50a3      	strne	r3, [r4, r2]
 8002b2c:	e7af      	b.n	8002a8e <_malloc_r+0x22>
 8002b2e:	6862      	ldr	r2, [r4, #4]
 8002b30:	42a3      	cmp	r3, r4
 8002b32:	bf0c      	ite	eq
 8002b34:	f8c8 2000 	streq.w	r2, [r8]
 8002b38:	605a      	strne	r2, [r3, #4]
 8002b3a:	e7eb      	b.n	8002b14 <_malloc_r+0xa8>
 8002b3c:	4623      	mov	r3, r4
 8002b3e:	6864      	ldr	r4, [r4, #4]
 8002b40:	e7ae      	b.n	8002aa0 <_malloc_r+0x34>
 8002b42:	463c      	mov	r4, r7
 8002b44:	687f      	ldr	r7, [r7, #4]
 8002b46:	e7b6      	b.n	8002ab6 <_malloc_r+0x4a>
 8002b48:	461a      	mov	r2, r3
 8002b4a:	685b      	ldr	r3, [r3, #4]
 8002b4c:	42a3      	cmp	r3, r4
 8002b4e:	d1fb      	bne.n	8002b48 <_malloc_r+0xdc>
 8002b50:	2300      	movs	r3, #0
 8002b52:	6053      	str	r3, [r2, #4]
 8002b54:	e7de      	b.n	8002b14 <_malloc_r+0xa8>
 8002b56:	230c      	movs	r3, #12
 8002b58:	6033      	str	r3, [r6, #0]
 8002b5a:	4630      	mov	r0, r6
 8002b5c:	f000 f80c 	bl	8002b78 <__malloc_unlock>
 8002b60:	e794      	b.n	8002a8c <_malloc_r+0x20>
 8002b62:	6005      	str	r5, [r0, #0]
 8002b64:	e7d6      	b.n	8002b14 <_malloc_r+0xa8>
 8002b66:	bf00      	nop
 8002b68:	200005cc 	.word	0x200005cc

08002b6c <__malloc_lock>:
 8002b6c:	4801      	ldr	r0, [pc, #4]	@ (8002b74 <__malloc_lock+0x8>)
 8002b6e:	f7ff bf07 	b.w	8002980 <__retarget_lock_acquire_recursive>
 8002b72:	bf00      	nop
 8002b74:	200005c4 	.word	0x200005c4

08002b78 <__malloc_unlock>:
 8002b78:	4801      	ldr	r0, [pc, #4]	@ (8002b80 <__malloc_unlock+0x8>)
 8002b7a:	f7ff bf02 	b.w	8002982 <__retarget_lock_release_recursive>
 8002b7e:	bf00      	nop
 8002b80:	200005c4 	.word	0x200005c4

08002b84 <__ssputs_r>:
 8002b84:	e92d 47f0 	stmdb	sp!, {r4, r5, r6, r7, r8, r9, sl, lr}
 8002b88:	688e      	ldr	r6, [r1, #8]
 8002b8a:	461f      	mov	r7, r3
 8002b8c:	42be      	cmp	r6, r7
 8002b8e:	680b      	ldr	r3, [r1, #0]
 8002b90:	4682      	mov	sl, r0
 8002b92:	460c      	mov	r4, r1
 8002b94:	4690      	mov	r8, r2
 8002b96:	d82d      	bhi.n	8002bf4 <__ssputs_r+0x70>
 8002b98:	f9b1 200c 	ldrsh.w	r2, [r1, #12]
 8002b9c:	f412 6f90 	tst.w	r2, #1152	@ 0x480
 8002ba0:	d026      	beq.n	8002bf0 <__ssputs_r+0x6c>
 8002ba2:	6965      	ldr	r5, [r4, #20]
 8002ba4:	6909      	ldr	r1, [r1, #16]
 8002ba6:	eb05 0545 	add.w	r5, r5, r5, lsl #1
 8002baa:	eba3 0901 	sub.w	r9, r3, r1
 8002bae:	eb05 75d5 	add.w	r5, r5, r5, lsr #31
 8002bb2:	1c7b      	adds	r3, r7, #1
 8002bb4:	444b      	add	r3, r9
 8002bb6:	106d      	asrs	r5, r5, #1
 8002bb8:	429d      	cmp	r5, r3
 8002bba:	bf38      	it	cc
 8002bbc:	461d      	movcc	r5, r3
 8002bbe:	0553      	lsls	r3, r2, #21
 8002bc0:	d527      	bpl.n	8002c12 <__ssputs_r+0x8e>
 8002bc2:	4629      	mov	r1, r5
 8002bc4:	f7ff ff52 	bl	8002a6c <_malloc_r>
 8002bc8:	4606      	mov	r6, r0
 8002bca:	b360      	cbz	r0, 8002c26 <__ssputs_r+0xa2>
 8002bcc:	6921      	ldr	r1, [r4, #16]
 8002bce:	464a      	mov	r2, r9
 8002bd0:	f000 fae6 	bl	80031a0 <memcpy>
 8002bd4:	89a3      	ldrh	r3, [r4, #12]
 8002bd6:	f423 6390 	bic.w	r3, r3, #1152	@ 0x480
 8002bda:	f043 0380 	orr.w	r3, r3, #128	@ 0x80
 8002bde:	81a3      	strh	r3, [r4, #12]
 8002be0:	6126      	str	r6, [r4, #16]
 8002be2:	6165      	str	r5, [r4, #20]
 8002be4:	444e      	add	r6, r9
 8002be6:	eba5 0509 	sub.w	r5, r5, r9
 8002bea:	6026      	str	r6, [r4, #0]
 8002bec:	60a5      	str	r5, [r4, #8]
 8002bee:	463e      	mov	r6, r7
 8002bf0:	42be      	cmp	r6, r7
 8002bf2:	d900      	bls.n	8002bf6 <__ssputs_r+0x72>
 8002bf4:	463e      	mov	r6, r7
 8002bf6:	6820      	ldr	r0, [r4, #0]
 8002bf8:	4632      	mov	r2, r6
 8002bfa:	4641      	mov	r1, r8
 8002bfc:	f000 faa6 	bl	800314c <memmove>
 8002c00:	68a3      	ldr	r3, [r4, #8]
 8002c02:	1b9b      	subs	r3, r3, r6
 8002c04:	60a3      	str	r3, [r4, #8]
 8002c06:	6823      	ldr	r3, [r4, #0]
 8002c08:	4433      	add	r3, r6
 8002c0a:	6023      	str	r3, [r4, #0]
 8002c0c:	2000      	movs	r0, #0
 8002c0e:	e8bd 87f0 	ldmia.w	sp!, {r4, r5, r6, r7, r8, r9, sl, pc}
 8002c12:	462a      	mov	r2, r5
 8002c14:	f000 fad2 	bl	80031bc <_realloc_r>
 8002c18:	4606      	mov	r6, r0
 8002c1a:	2800      	cmp	r0, #0
 8002c1c:	d1e0      	bne.n	8002be0 <__ssputs_r+0x5c>
 8002c1e:	6921      	ldr	r1, [r4, #16]
 8002c20:	4650      	mov	r0, sl
 8002c22:	f7ff feb7 	bl	8002994 <_free_r>
 8002c26:	230c      	movs	r3, #12
 8002c28:	f8ca 3000 	str.w	r3, [sl]
 8002c2c:	89a3      	ldrh	r3, [r4, #12]
 8002c2e:	f043 0340 	orr.w	r3, r3, #64	@ 0x40
 8002c32:	81a3      	strh	r3, [r4, #12]
 8002c34:	f04f 30ff 	mov.w	r0, #4294967295
 8002c38:	e7e9      	b.n	8002c0e <__ssputs_r+0x8a>
	...

08002c3c <_svfiprintf_r>:
 8002c3c:	e92d 4ff0 	stmdb	sp!, {r4, r5, r6, r7, r8, r9, sl, fp, lr}
 8002c40:	4698      	mov	r8, r3
 8002c42:	898b      	ldrh	r3, [r1, #12]
 8002c44:	061b      	lsls	r3, r3, #24
 8002c46:	b09d      	sub	sp, #116	@ 0x74
 8002c48:	4607      	mov	r7, r0
 8002c4a:	460d      	mov	r5, r1
 8002c4c:	4614      	mov	r4, r2
 8002c4e:	d510      	bpl.n	8002c72 <_svfiprintf_r+0x36>
 8002c50:	690b      	ldr	r3, [r1, #16]
 8002c52:	b973      	cbnz	r3, 8002c72 <_svfiprintf_r+0x36>
 8002c54:	2140      	movs	r1, #64	@ 0x40
 8002c56:	f7ff ff09 	bl	8002a6c <_malloc_r>
 8002c5a:	6028      	str	r0, [r5, #0]
 8002c5c:	6128      	str	r0, [r5, #16]
 8002c5e:	b930      	cbnz	r0, 8002c6e <_svfiprintf_r+0x32>
 8002c60:	230c      	movs	r3, #12
 8002c62:	603b      	str	r3, [r7, #0]
 8002c64:	f04f 30ff 	mov.w	r0, #4294967295
 8002c68:	b01d      	add	sp, #116	@ 0x74
 8002c6a:	e8bd 8ff0 	ldmia.w	sp!, {r4, r5, r6, r7, r8, r9, sl, fp, pc}
 8002c6e:	2340      	movs	r3, #64	@ 0x40
 8002c70:	616b      	str	r3, [r5, #20]
 8002c72:	2300      	movs	r3, #0
 8002c74:	9309      	str	r3, [sp, #36]	@ 0x24
 8002c76:	2320      	movs	r3, #32
 8002c78:	f88d 3029 	strb.w	r3, [sp, #41]	@ 0x29
 8002c7c:	f8cd 800c 	str.w	r8, [sp, #12]
 8002c80:	2330      	movs	r3, #48	@ 0x30
 8002c82:	f8df 819c 	ldr.w	r8, [pc, #412]	@ 8002e20 <_svfiprintf_r+0x1e4>
 8002c86:	f88d 302a 	strb.w	r3, [sp, #42]	@ 0x2a
 8002c8a:	f04f 0901 	mov.w	r9, #1
 8002c8e:	4623      	mov	r3, r4
 8002c90:	469a      	mov	sl, r3
 8002c92:	f813 2b01 	ldrb.w	r2, [r3], #1
 8002c96:	b10a      	cbz	r2, 8002c9c <_svfiprintf_r+0x60>
 8002c98:	2a25      	cmp	r2, #37	@ 0x25
 8002c9a:	d1f9      	bne.n	8002c90 <_svfiprintf_r+0x54>
 8002c9c:	ebba 0b04 	subs.w	fp, sl, r4
 8002ca0:	d00b      	beq.n	8002cba <_svfiprintf_r+0x7e>
 8002ca2:	465b      	mov	r3, fp
 8002ca4:	4622      	mov	r2, r4
 8002ca6:	4629      	mov	r1, r5
 8002ca8:	4638      	mov	r0, r7
 8002caa:	f7ff ff6b 	bl	8002b84 <__ssputs_r>
 8002cae:	3001      	adds	r0, #1
 8002cb0:	f000 80a7 	beq.w	8002e02 <_svfiprintf_r+0x1c6>
 8002cb4:	9a09      	ldr	r2, [sp, #36]	@ 0x24
 8002cb6:	445a      	add	r2, fp
 8002cb8:	9209      	str	r2, [sp, #36]	@ 0x24
 8002cba:	f89a 3000 	ldrb.w	r3, [sl]
 8002cbe:	2b00      	cmp	r3, #0
 8002cc0:	f000 809f 	beq.w	8002e02 <_svfiprintf_r+0x1c6>
 8002cc4:	2300      	movs	r3, #0
 8002cc6:	f04f 32ff 	mov.w	r2, #4294967295
 8002cca:	e9cd 2305 	strd	r2, r3, [sp, #20]
 8002cce:	f10a 0a01 	add.w	sl, sl, #1
 8002cd2:	9304      	str	r3, [sp, #16]
 8002cd4:	9307      	str	r3, [sp, #28]
 8002cd6:	f88d 3053 	strb.w	r3, [sp, #83]	@ 0x53
 8002cda:	931a      	str	r3, [sp, #104]	@ 0x68
 8002cdc:	4654      	mov	r4, sl
 8002cde:	2205      	movs	r2, #5
 8002ce0:	f814 1b01 	ldrb.w	r1, [r4], #1
 8002ce4:	484e      	ldr	r0, [pc, #312]	@ (8002e20 <_svfiprintf_r+0x1e4>)
 8002ce6:	f7fd fa73 	bl	80001d0 <memchr>
 8002cea:	9a04      	ldr	r2, [sp, #16]
 8002cec:	b9d8      	cbnz	r0, 8002d26 <_svfiprintf_r+0xea>
 8002cee:	06d0      	lsls	r0, r2, #27
 8002cf0:	bf44      	itt	mi
 8002cf2:	2320      	movmi	r3, #32
 8002cf4:	f88d 3053 	strbmi.w	r3, [sp, #83]	@ 0x53
 8002cf8:	0711      	lsls	r1, r2, #28
 8002cfa:	bf44      	itt	mi
 8002cfc:	232b      	movmi	r3, #43	@ 0x2b
 8002cfe:	f88d 3053 	strbmi.w	r3, [sp, #83]	@ 0x53
 8002d02:	f89a 3000 	ldrb.w	r3, [sl]
 8002d06:	2b2a      	cmp	r3, #42	@ 0x2a
 8002d08:	d015      	beq.n	8002d36 <_svfiprintf_r+0xfa>
 8002d0a:	9a07      	ldr	r2, [sp, #28]
 8002d0c:	4654      	mov	r4, sl
 8002d0e:	2000      	movs	r0, #0
 8002d10:	f04f 0c0a 	mov.w	ip, #10
 8002d14:	4621      	mov	r1, r4
 8002d16:	f811 3b01 	ldrb.w	r3, [r1], #1
 8002d1a:	3b30      	subs	r3, #48	@ 0x30
 8002d1c:	2b09      	cmp	r3, #9
 8002d1e:	d94b      	bls.n	8002db8 <_svfiprintf_r+0x17c>
 8002d20:	b1b0      	cbz	r0, 8002d50 <_svfiprintf_r+0x114>
 8002d22:	9207      	str	r2, [sp, #28]
 8002d24:	e014      	b.n	8002d50 <_svfiprintf_r+0x114>
 8002d26:	eba0 0308 	sub.w	r3, r0, r8
 8002d2a:	fa09 f303 	lsl.w	r3, r9, r3
 8002d2e:	4313      	orrs	r3, r2
 8002d30:	9304      	str	r3, [sp, #16]
 8002d32:	46a2      	mov	sl, r4
 8002d34:	e7d2      	b.n	8002cdc <_svfiprintf_r+0xa0>
 8002d36:	9b03      	ldr	r3, [sp, #12]
 8002d38:	1d19      	adds	r1, r3, #4
 8002d3a:	681b      	ldr	r3, [r3, #0]
 8002d3c:	9103      	str	r1, [sp, #12]
 8002d3e:	2b00      	cmp	r3, #0
 8002d40:	bfbb      	ittet	lt
 8002d42:	425b      	neglt	r3, r3
 8002d44:	f042 0202 	orrlt.w	r2, r2, #2
 8002d48:	9307      	strge	r3, [sp, #28]
 8002d4a:	9307      	strlt	r3, [sp, #28]
 8002d4c:	bfb8      	it	lt
 8002d4e:	9204      	strlt	r2, [sp, #16]
 8002d50:	7823      	ldrb	r3, [r4, #0]
 8002d52:	2b2e      	cmp	r3, #46	@ 0x2e
 8002d54:	d10a      	bne.n	8002d6c <_svfiprintf_r+0x130>
 8002d56:	7863      	ldrb	r3, [r4, #1]
 8002d58:	2b2a      	cmp	r3, #42	@ 0x2a
 8002d5a:	d132      	bne.n	8002dc2 <_svfiprintf_r+0x186>
 8002d5c:	9b03      	ldr	r3, [sp, #12]
 8002d5e:	1d1a      	adds	r2, r3, #4
 8002d60:	681b      	ldr	r3, [r3, #0]
 8002d62:	9203      	str	r2, [sp, #12]
 8002d64:	ea43 73e3 	orr.w	r3, r3, r3, asr #31
 8002d68:	3402      	adds	r4, #2
 8002d6a:	9305      	str	r3, [sp, #20]
 8002d6c:	f8df a0c0 	ldr.w	sl, [pc, #192]	@ 8002e30 <_svfiprintf_r+0x1f4>
 8002d70:	7821      	ldrb	r1, [r4, #0]
 8002d72:	2203      	movs	r2, #3
 8002d74:	4650      	mov	r0, sl
 8002d76:	f7fd fa2b 	bl	80001d0 <memchr>
 8002d7a:	b138      	cbz	r0, 8002d8c <_svfiprintf_r+0x150>
 8002d7c:	9b04      	ldr	r3, [sp, #16]
 8002d7e:	eba0 000a 	sub.w	r0, r0, sl
 8002d82:	2240      	movs	r2, #64	@ 0x40
 8002d84:	4082      	lsls	r2, r0
 8002d86:	4313      	orrs	r3, r2
 8002d88:	3401      	adds	r4, #1
 8002d8a:	9304      	str	r3, [sp, #16]
 8002d8c:	f814 1b01 	ldrb.w	r1, [r4], #1
 8002d90:	4824      	ldr	r0, [pc, #144]	@ (8002e24 <_svfiprintf_r+0x1e8>)
 8002d92:	f88d 1028 	strb.w	r1, [sp, #40]	@ 0x28
 8002d96:	2206      	movs	r2, #6
 8002d98:	f7fd fa1a 	bl	80001d0 <memchr>
 8002d9c:	2800      	cmp	r0, #0
 8002d9e:	d036      	beq.n	8002e0e <_svfiprintf_r+0x1d2>
 8002da0:	4b21      	ldr	r3, [pc, #132]	@ (8002e28 <_svfiprintf_r+0x1ec>)
 8002da2:	bb1b      	cbnz	r3, 8002dec <_svfiprintf_r+0x1b0>
 8002da4:	9b03      	ldr	r3, [sp, #12]
 8002da6:	3307      	adds	r3, #7
 8002da8:	f023 0307 	bic.w	r3, r3, #7
 8002dac:	3308      	adds	r3, #8
 8002dae:	9303      	str	r3, [sp, #12]
 8002db0:	9b09      	ldr	r3, [sp, #36]	@ 0x24
 8002db2:	4433      	add	r3, r6
 8002db4:	9309      	str	r3, [sp, #36]	@ 0x24
 8002db6:	e76a      	b.n	8002c8e <_svfiprintf_r+0x52>
 8002db8:	fb0c 3202 	mla	r2, ip, r2, r3
 8002dbc:	460c      	mov	r4, r1
 8002dbe:	2001      	movs	r0, #1
 8002dc0:	e7a8      	b.n	8002d14 <_svfiprintf_r+0xd8>
 8002dc2:	2300      	movs	r3, #0
 8002dc4:	3401      	adds	r4, #1
 8002dc6:	9305      	str	r3, [sp, #20]
 8002dc8:	4619      	mov	r1, r3
 8002dca:	f04f 0c0a 	mov.w	ip, #10
 8002dce:	4620      	mov	r0, r4
 8002dd0:	f810 2b01 	ldrb.w	r2, [r0], #1
 8002dd4:	3a30      	subs	r2, #48	@ 0x30
 8002dd6:	2a09      	cmp	r2, #9
 8002dd8:	d903      	bls.n	8002de2 <_svfiprintf_r+0x1a6>
 8002dda:	2b00      	cmp	r3, #0
 8002ddc:	d0c6      	beq.n	8002d6c <_svfiprintf_r+0x130>
 8002dde:	9105      	str	r1, [sp, #20]
 8002de0:	e7c4      	b.n	8002d6c <_svfiprintf_r+0x130>
 8002de2:	fb0c 2101 	mla	r1, ip, r1, r2
 8002de6:	4604      	mov	r4, r0
 8002de8:	2301      	movs	r3, #1
 8002dea:	e7f0      	b.n	8002dce <_svfiprintf_r+0x192>
 8002dec:	ab03      	add	r3, sp, #12
 8002dee:	9300      	str	r3, [sp, #0]
 8002df0:	462a      	mov	r2, r5
 8002df2:	4b0e      	ldr	r3, [pc, #56]	@ (8002e2c <_svfiprintf_r+0x1f0>)
 8002df4:	a904      	add	r1, sp, #16
 8002df6:	4638      	mov	r0, r7
 8002df8:	f3af 8000 	nop.w
 8002dfc:	1c42      	adds	r2, r0, #1
 8002dfe:	4606      	mov	r6, r0
 8002e00:	d1d6      	bne.n	8002db0 <_svfiprintf_r+0x174>
 8002e02:	89ab      	ldrh	r3, [r5, #12]
 8002e04:	065b      	lsls	r3, r3, #25
 8002e06:	f53f af2d 	bmi.w	8002c64 <_svfiprintf_r+0x28>
 8002e0a:	9809      	ldr	r0, [sp, #36]	@ 0x24
 8002e0c:	e72c      	b.n	8002c68 <_svfiprintf_r+0x2c>
 8002e0e:	ab03      	add	r3, sp, #12
 8002e10:	9300      	str	r3, [sp, #0]
 8002e12:	462a      	mov	r2, r5
 8002e14:	4b05      	ldr	r3, [pc, #20]	@ (8002e2c <_svfiprintf_r+0x1f0>)
 8002e16:	a904      	add	r1, sp, #16
 8002e18:	4638      	mov	r0, r7
 8002e1a:	f000 f879 	bl	8002f10 <_printf_i>
 8002e1e:	e7ed      	b.n	8002dfc <_svfiprintf_r+0x1c0>
 8002e20:	080033a5 	.word	0x080033a5
 8002e24:	080033af 	.word	0x080033af
 8002e28:	00000000 	.word	0x00000000
 8002e2c:	08002b85 	.word	0x08002b85
 8002e30:	080033ab 	.word	0x080033ab

08002e34 <_printf_common>:
 8002e34:	e92d 47f0 	stmdb	sp!, {r4, r5, r6, r7, r8, r9, sl, lr}
 8002e38:	4616      	mov	r6, r2
 8002e3a:	4698      	mov	r8, r3
 8002e3c:	688a      	ldr	r2, [r1, #8]
 8002e3e:	690b      	ldr	r3, [r1, #16]
 8002e40:	f8dd 9020 	ldr.w	r9, [sp, #32]
 8002e44:	4293      	cmp	r3, r2
 8002e46:	bfb8      	it	lt
 8002e48:	4613      	movlt	r3, r2
 8002e4a:	6033      	str	r3, [r6, #0]
 8002e4c:	f891 2043 	ldrb.w	r2, [r1, #67]	@ 0x43
 8002e50:	4607      	mov	r7, r0
 8002e52:	460c      	mov	r4, r1
 8002e54:	b10a      	cbz	r2, 8002e5a <_printf_common+0x26>
 8002e56:	3301      	adds	r3, #1
 8002e58:	6033      	str	r3, [r6, #0]
 8002e5a:	6823      	ldr	r3, [r4, #0]
 8002e5c:	0699      	lsls	r1, r3, #26
 8002e5e:	bf42      	ittt	mi
 8002e60:	6833      	ldrmi	r3, [r6, #0]
 8002e62:	3302      	addmi	r3, #2
 8002e64:	6033      	strmi	r3, [r6, #0]
 8002e66:	6825      	ldr	r5, [r4, #0]
 8002e68:	f015 0506 	ands.w	r5, r5, #6
 8002e6c:	d106      	bne.n	8002e7c <_printf_common+0x48>
 8002e6e:	f104 0a19 	add.w	sl, r4, #25
 8002e72:	68e3      	ldr	r3, [r4, #12]
 8002e74:	6832      	ldr	r2, [r6, #0]
 8002e76:	1a9b      	subs	r3, r3, r2
 8002e78:	42ab      	cmp	r3, r5
 8002e7a:	dc26      	bgt.n	8002eca <_printf_common+0x96>
 8002e7c:	f894 3043 	ldrb.w	r3, [r4, #67]	@ 0x43
 8002e80:	6822      	ldr	r2, [r4, #0]
 8002e82:	3b00      	subs	r3, #0
 8002e84:	bf18      	it	ne
 8002e86:	2301      	movne	r3, #1
 8002e88:	0692      	lsls	r2, r2, #26
 8002e8a:	d42b      	bmi.n	8002ee4 <_printf_common+0xb0>
 8002e8c:	f104 0243 	add.w	r2, r4, #67	@ 0x43
 8002e90:	4641      	mov	r1, r8
 8002e92:	4638      	mov	r0, r7
 8002e94:	47c8      	blx	r9
 8002e96:	3001      	adds	r0, #1
 8002e98:	d01e      	beq.n	8002ed8 <_printf_common+0xa4>
 8002e9a:	6823      	ldr	r3, [r4, #0]
 8002e9c:	6922      	ldr	r2, [r4, #16]
 8002e9e:	f003 0306 	and.w	r3, r3, #6
 8002ea2:	2b04      	cmp	r3, #4
 8002ea4:	bf02      	ittt	eq
 8002ea6:	68e5      	ldreq	r5, [r4, #12]
 8002ea8:	6833      	ldreq	r3, [r6, #0]
 8002eaa:	1aed      	subeq	r5, r5, r3
 8002eac:	68a3      	ldr	r3, [r4, #8]
 8002eae:	bf0c      	ite	eq
 8002eb0:	ea25 75e5 	biceq.w	r5, r5, r5, asr #31
 8002eb4:	2500      	movne	r5, #0
 8002eb6:	4293      	cmp	r3, r2
 8002eb8:	bfc4      	itt	gt
 8002eba:	1a9b      	subgt	r3, r3, r2
 8002ebc:	18ed      	addgt	r5, r5, r3
 8002ebe:	2600      	movs	r6, #0
 8002ec0:	341a      	adds	r4, #26
 8002ec2:	42b5      	cmp	r5, r6
 8002ec4:	d11a      	bne.n	8002efc <_printf_common+0xc8>
 8002ec6:	2000      	movs	r0, #0
 8002ec8:	e008      	b.n	8002edc <_printf_common+0xa8>
 8002eca:	2301      	movs	r3, #1
 8002ecc:	4652      	mov	r2, sl
 8002ece:	4641      	mov	r1, r8
 8002ed0:	4638      	mov	r0, r7
 8002ed2:	47c8      	blx	r9
 8002ed4:	3001      	adds	r0, #1
 8002ed6:	d103      	bne.n	8002ee0 <_printf_common+0xac>
 8002ed8:	f04f 30ff 	mov.w	r0, #4294967295
 8002edc:	e8bd 87f0 	ldmia.w	sp!, {r4, r5, r6, r7, r8, r9, sl, pc}
 8002ee0:	3501      	adds	r5, #1
 8002ee2:	e7c6      	b.n	8002e72 <_printf_common+0x3e>
 8002ee4:	18e1      	adds	r1, r4, r3
 8002ee6:	1c5a      	adds	r2, r3, #1
 8002ee8:	2030      	movs	r0, #48	@ 0x30
 8002eea:	f881 0043 	strb.w	r0, [r1, #67]	@ 0x43
 8002eee:	4422      	add	r2, r4
 8002ef0:	f894 1045 	ldrb.w	r1, [r4, #69]	@ 0x45
 8002ef4:	f882 1043 	strb.w	r1, [r2, #67]	@ 0x43
 8002ef8:	3302      	adds	r3, #2
 8002efa:	e7c7      	b.n	8002e8c <_printf_common+0x58>
 8002efc:	2301      	movs	r3, #1
 8002efe:	4622      	mov	r2, r4
 8002f00:	4641      	mov	r1, r8
 8002f02:	4638      	mov	r0, r7
 8002f04:	47c8      	blx	r9
 8002f06:	3001      	adds	r0, #1
 8002f08:	d0e6      	beq.n	8002ed8 <_printf_common+0xa4>
 8002f0a:	3601      	adds	r6, #1
 8002f0c:	e7d9      	b.n	8002ec2 <_printf_common+0x8e>
	...

08002f10 <_printf_i>:
 8002f10:	e92d 47ff 	stmdb	sp!, {r0, r1, r2, r3, r4, r5, r6, r7, r8, r9, sl, lr}
 8002f14:	7e0f      	ldrb	r7, [r1, #24]
 8002f16:	9e0c      	ldr	r6, [sp, #48]	@ 0x30
 8002f18:	2f78      	cmp	r7, #120	@ 0x78
 8002f1a:	4691      	mov	r9, r2
 8002f1c:	4680      	mov	r8, r0
 8002f1e:	460c      	mov	r4, r1
 8002f20:	469a      	mov	sl, r3
 8002f22:	f101 0243 	add.w	r2, r1, #67	@ 0x43
 8002f26:	d807      	bhi.n	8002f38 <_printf_i+0x28>
 8002f28:	2f62      	cmp	r7, #98	@ 0x62
 8002f2a:	d80a      	bhi.n	8002f42 <_printf_i+0x32>
 8002f2c:	2f00      	cmp	r7, #0
 8002f2e:	f000 80d1 	beq.w	80030d4 <_printf_i+0x1c4>
 8002f32:	2f58      	cmp	r7, #88	@ 0x58
 8002f34:	f000 80b8 	beq.w	80030a8 <_printf_i+0x198>
 8002f38:	f104 0642 	add.w	r6, r4, #66	@ 0x42
 8002f3c:	f884 7042 	strb.w	r7, [r4, #66]	@ 0x42
 8002f40:	e03a      	b.n	8002fb8 <_printf_i+0xa8>
 8002f42:	f1a7 0363 	sub.w	r3, r7, #99	@ 0x63
 8002f46:	2b15      	cmp	r3, #21
 8002f48:	d8f6      	bhi.n	8002f38 <_printf_i+0x28>
 8002f4a:	a101      	add	r1, pc, #4	@ (adr r1, 8002f50 <_printf_i+0x40>)
 8002f4c:	f851 f023 	ldr.w	pc, [r1, r3, lsl #2]
 8002f50:	08002fa9 	.word	0x08002fa9
 8002f54:	08002fbd 	.word	0x08002fbd
 8002f58:	08002f39 	.word	0x08002f39
 8002f5c:	08002f39 	.word	0x08002f39
 8002f60:	08002f39 	.word	0x08002f39
 8002f64:	08002f39 	.word	0x08002f39
 8002f68:	08002fbd 	.word	0x08002fbd
 8002f6c:	08002f39 	.word	0x08002f39
 8002f70:	08002f39 	.word	0x08002f39
 8002f74:	08002f39 	.word	0x08002f39
 8002f78:	08002f39 	.word	0x08002f39
 8002f7c:	080030bb 	.word	0x080030bb
 8002f80:	08002fe7 	.word	0x08002fe7
 8002f84:	08003075 	.word	0x08003075
 8002f88:	08002f39 	.word	0x08002f39
 8002f8c:	08002f39 	.word	0x08002f39
 8002f90:	080030dd 	.word	0x080030dd
 8002f94:	08002f39 	.word	0x08002f39
 8002f98:	08002fe7 	.word	0x08002fe7
 8002f9c:	08002f39 	.word	0x08002f39
 8002fa0:	08002f39 	.word	0x08002f39
 8002fa4:	0800307d 	.word	0x0800307d
 8002fa8:	6833      	ldr	r3, [r6, #0]
 8002faa:	1d1a      	adds	r2, r3, #4
 8002fac:	681b      	ldr	r3, [r3, #0]
 8002fae:	6032      	str	r2, [r6, #0]
 8002fb0:	f104 0642 	add.w	r6, r4, #66	@ 0x42
 8002fb4:	f884 3042 	strb.w	r3, [r4, #66]	@ 0x42
 8002fb8:	2301      	movs	r3, #1
 8002fba:	e09c      	b.n	80030f6 <_printf_i+0x1e6>
 8002fbc:	6833      	ldr	r3, [r6, #0]
 8002fbe:	6820      	ldr	r0, [r4, #0]
 8002fc0:	1d19      	adds	r1, r3, #4
 8002fc2:	6031      	str	r1, [r6, #0]
 8002fc4:	0606      	lsls	r6, r0, #24
 8002fc6:	d501      	bpl.n	8002fcc <_printf_i+0xbc>
 8002fc8:	681d      	ldr	r5, [r3, #0]
 8002fca:	e003      	b.n	8002fd4 <_printf_i+0xc4>
 8002fcc:	0645      	lsls	r5, r0, #25
 8002fce:	d5fb      	bpl.n	8002fc8 <_printf_i+0xb8>
 8002fd0:	f9b3 5000 	ldrsh.w	r5, [r3]
 8002fd4:	2d00      	cmp	r5, #0
 8002fd6:	da03      	bge.n	8002fe0 <_printf_i+0xd0>
 8002fd8:	232d      	movs	r3, #45	@ 0x2d
 8002fda:	426d      	negs	r5, r5
 8002fdc:	f884 3043 	strb.w	r3, [r4, #67]	@ 0x43
 8002fe0:	4858      	ldr	r0, [pc, #352]	@ (8003144 <_printf_i+0x234>)
 8002fe2:	230a      	movs	r3, #10
 8002fe4:	e011      	b.n	800300a <_printf_i+0xfa>
 8002fe6:	6821      	ldr	r1, [r4, #0]
 8002fe8:	6833      	ldr	r3, [r6, #0]
 8002fea:	0608      	lsls	r0, r1, #24
 8002fec:	f853 5b04 	ldr.w	r5, [r3], #4
 8002ff0:	d402      	bmi.n	8002ff8 <_printf_i+0xe8>
 8002ff2:	0649      	lsls	r1, r1, #25
 8002ff4:	bf48      	it	mi
 8002ff6:	b2ad      	uxthmi	r5, r5
 8002ff8:	2f6f      	cmp	r7, #111	@ 0x6f
 8002ffa:	4852      	ldr	r0, [pc, #328]	@ (8003144 <_printf_i+0x234>)
 8002ffc:	6033      	str	r3, [r6, #0]
 8002ffe:	bf14      	ite	ne
 8003000:	230a      	movne	r3, #10
 8003002:	2308      	moveq	r3, #8
 8003004:	2100      	movs	r1, #0
 8003006:	f884 1043 	strb.w	r1, [r4, #67]	@ 0x43
 800300a:	6866      	ldr	r6, [r4, #4]
 800300c:	60a6      	str	r6, [r4, #8]
 800300e:	2e00      	cmp	r6, #0
 8003010:	db05      	blt.n	800301e <_printf_i+0x10e>
 8003012:	6821      	ldr	r1, [r4, #0]
 8003014:	432e      	orrs	r6, r5
 8003016:	f021 0104 	bic.w	r1, r1, #4
 800301a:	6021      	str	r1, [r4, #0]
 800301c:	d04b      	beq.n	80030b6 <_printf_i+0x1a6>
 800301e:	4616      	mov	r6, r2
 8003020:	fbb5 f1f3 	udiv	r1, r5, r3
 8003024:	fb03 5711 	mls	r7, r3, r1, r5
 8003028:	5dc7      	ldrb	r7, [r0, r7]
 800302a:	f806 7d01 	strb.w	r7, [r6, #-1]!
 800302e:	462f      	mov	r7, r5
 8003030:	42bb      	cmp	r3, r7
 8003032:	460d      	mov	r5, r1
 8003034:	d9f4      	bls.n	8003020 <_printf_i+0x110>
 8003036:	2b08      	cmp	r3, #8
 8003038:	d10b      	bne.n	8003052 <_printf_i+0x142>
 800303a:	6823      	ldr	r3, [r4, #0]
 800303c:	07df      	lsls	r7, r3, #31
 800303e:	d508      	bpl.n	8003052 <_printf_i+0x142>
 8003040:	6923      	ldr	r3, [r4, #16]
 8003042:	6861      	ldr	r1, [r4, #4]
 8003044:	4299      	cmp	r1, r3
 8003046:	bfde      	ittt	le
 8003048:	2330      	movle	r3, #48	@ 0x30
 800304a:	f806 3c01 	strble.w	r3, [r6, #-1]
 800304e:	f106 36ff 	addle.w	r6, r6, #4294967295
 8003052:	1b92      	subs	r2, r2, r6
 8003054:	6122      	str	r2, [r4, #16]
 8003056:	f8cd a000 	str.w	sl, [sp]
 800305a:	464b      	mov	r3, r9
 800305c:	aa03      	add	r2, sp, #12
 800305e:	4621      	mov	r1, r4
 8003060:	4640      	mov	r0, r8
 8003062:	f7ff fee7 	bl	8002e34 <_printf_common>
 8003066:	3001      	adds	r0, #1
 8003068:	d14a      	bne.n	8003100 <_printf_i+0x1f0>
 800306a:	f04f 30ff 	mov.w	r0, #4294967295
 800306e:	b004      	add	sp, #16
 8003070:	e8bd 87f0 	ldmia.w	sp!, {r4, r5, r6, r7, r8, r9, sl, pc}
 8003074:	6823      	ldr	r3, [r4, #0]
 8003076:	f043 0320 	orr.w	r3, r3, #32
 800307a:	6023      	str	r3, [r4, #0]
 800307c:	4832      	ldr	r0, [pc, #200]	@ (8003148 <_printf_i+0x238>)
 800307e:	2778      	movs	r7, #120	@ 0x78
 8003080:	f884 7045 	strb.w	r7, [r4, #69]	@ 0x45
 8003084:	6823      	ldr	r3, [r4, #0]
 8003086:	6831      	ldr	r1, [r6, #0]
 8003088:	061f      	lsls	r7, r3, #24
 800308a:	f851 5b04 	ldr.w	r5, [r1], #4
 800308e:	d402      	bmi.n	8003096 <_printf_i+0x186>
 8003090:	065f      	lsls	r7, r3, #25
 8003092:	bf48      	it	mi
 8003094:	b2ad      	uxthmi	r5, r5
 8003096:	6031      	str	r1, [r6, #0]
 8003098:	07d9      	lsls	r1, r3, #31
 800309a:	bf44      	itt	mi
 800309c:	f043 0320 	orrmi.w	r3, r3, #32
 80030a0:	6023      	strmi	r3, [r4, #0]
 80030a2:	b11d      	cbz	r5, 80030ac <_printf_i+0x19c>
 80030a4:	2310      	movs	r3, #16
 80030a6:	e7ad      	b.n	8003004 <_printf_i+0xf4>
 80030a8:	4826      	ldr	r0, [pc, #152]	@ (8003144 <_printf_i+0x234>)
 80030aa:	e7e9      	b.n	8003080 <_printf_i+0x170>
 80030ac:	6823      	ldr	r3, [r4, #0]
 80030ae:	f023 0320 	bic.w	r3, r3, #32
 80030b2:	6023      	str	r3, [r4, #0]
 80030b4:	e7f6      	b.n	80030a4 <_printf_i+0x194>
 80030b6:	4616      	mov	r6, r2
 80030b8:	e7bd      	b.n	8003036 <_printf_i+0x126>
 80030ba:	6833      	ldr	r3, [r6, #0]
 80030bc:	6825      	ldr	r5, [r4, #0]
 80030be:	6961      	ldr	r1, [r4, #20]
 80030c0:	1d18      	adds	r0, r3, #4
 80030c2:	6030      	str	r0, [r6, #0]
 80030c4:	062e      	lsls	r6, r5, #24
 80030c6:	681b      	ldr	r3, [r3, #0]
 80030c8:	d501      	bpl.n	80030ce <_printf_i+0x1be>
 80030ca:	6019      	str	r1, [r3, #0]
 80030cc:	e002      	b.n	80030d4 <_printf_i+0x1c4>
 80030ce:	0668      	lsls	r0, r5, #25
 80030d0:	d5fb      	bpl.n	80030ca <_printf_i+0x1ba>
 80030d2:	8019      	strh	r1, [r3, #0]
 80030d4:	2300      	movs	r3, #0
 80030d6:	6123      	str	r3, [r4, #16]
 80030d8:	4616      	mov	r6, r2
 80030da:	e7bc      	b.n	8003056 <_printf_i+0x146>
 80030dc:	6833      	ldr	r3, [r6, #0]
 80030de:	1d1a      	adds	r2, r3, #4
 80030e0:	6032      	str	r2, [r6, #0]
 80030e2:	681e      	ldr	r6, [r3, #0]
 80030e4:	6862      	ldr	r2, [r4, #4]
 80030e6:	2100      	movs	r1, #0
 80030e8:	4630      	mov	r0, r6
 80030ea:	f7fd f871 	bl	80001d0 <memchr>
 80030ee:	b108      	cbz	r0, 80030f4 <_printf_i+0x1e4>
 80030f0:	1b80      	subs	r0, r0, r6
 80030f2:	6060      	str	r0, [r4, #4]
 80030f4:	6863      	ldr	r3, [r4, #4]
 80030f6:	6123      	str	r3, [r4, #16]
 80030f8:	2300      	movs	r3, #0
 80030fa:	f884 3043 	strb.w	r3, [r4, #67]	@ 0x43
 80030fe:	e7aa      	b.n	8003056 <_printf_i+0x146>
 8003100:	6923      	ldr	r3, [r4, #16]
 8003102:	4632      	mov	r2, r6
 8003104:	4649      	mov	r1, r9
 8003106:	4640      	mov	r0, r8
 8003108:	47d0      	blx	sl
 800310a:	3001      	adds	r0, #1
 800310c:	d0ad      	beq.n	800306a <_printf_i+0x15a>
 800310e:	6823      	ldr	r3, [r4, #0]
 8003110:	079b      	lsls	r3, r3, #30
 8003112:	d413      	bmi.n	800313c <_printf_i+0x22c>
 8003114:	68e0      	ldr	r0, [r4, #12]
 8003116:	9b03      	ldr	r3, [sp, #12]
 8003118:	4298      	cmp	r0, r3
 800311a:	bfb8      	it	lt
 800311c:	4618      	movlt	r0, r3
 800311e:	e7a6      	b.n	800306e <_printf_i+0x15e>
 8003120:	2301      	movs	r3, #1
 8003122:	4632      	mov	r2, r6
 8003124:	4649      	mov	r1, r9
 8003126:	4640      	mov	r0, r8
 8003128:	47d0      	blx	sl
 800312a:	3001      	adds	r0, #1
 800312c:	d09d      	beq.n	800306a <_printf_i+0x15a>
 800312e:	3501      	adds	r5, #1
 8003130:	68e3      	ldr	r3, [r4, #12]
 8003132:	9903      	ldr	r1, [sp, #12]
 8003134:	1a5b      	subs	r3, r3, r1
 8003136:	42ab      	cmp	r3, r5
 8003138:	dcf2      	bgt.n	8003120 <_printf_i+0x210>
 800313a:	e7eb      	b.n	8003114 <_printf_i+0x204>
 800313c:	2500      	movs	r5, #0
 800313e:	f104 0619 	add.w	r6, r4, #25
 8003142:	e7f5      	b.n	8003130 <_printf_i+0x220>
 8003144:	080033b6 	.word	0x080033b6
 8003148:	080033c7 	.word	0x080033c7

0800314c <memmove>:
 800314c:	4288      	cmp	r0, r1
 800314e:	b510      	push	{r4, lr}
 8003150:	eb01 0402 	add.w	r4, r1, r2
 8003154:	d902      	bls.n	800315c <memmove+0x10>
 8003156:	4284      	cmp	r4, r0
 8003158:	4623      	mov	r3, r4
 800315a:	d807      	bhi.n	800316c <memmove+0x20>
 800315c:	1e43      	subs	r3, r0, #1
 800315e:	42a1      	cmp	r1, r4
 8003160:	d008      	beq.n	8003174 <memmove+0x28>
 8003162:	f811 2b01 	ldrb.w	r2, [r1], #1
 8003166:	f803 2f01 	strb.w	r2, [r3, #1]!
 800316a:	e7f8      	b.n	800315e <memmove+0x12>
 800316c:	4402      	add	r2, r0
 800316e:	4601      	mov	r1, r0
 8003170:	428a      	cmp	r2, r1
 8003172:	d100      	bne.n	8003176 <memmove+0x2a>
 8003174:	bd10      	pop	{r4, pc}
 8003176:	f813 4d01 	ldrb.w	r4, [r3, #-1]!
 800317a:	f802 4d01 	strb.w	r4, [r2, #-1]!
 800317e:	e7f7      	b.n	8003170 <memmove+0x24>

08003180 <_sbrk_r>:
 8003180:	b538      	push	{r3, r4, r5, lr}
 8003182:	4d06      	ldr	r5, [pc, #24]	@ (800319c <_sbrk_r+0x1c>)
 8003184:	2300      	movs	r3, #0
 8003186:	4604      	mov	r4, r0
 8003188:	4608      	mov	r0, r1
 800318a:	602b      	str	r3, [r5, #0]
 800318c:	f7fd fd5c 	bl	8000c48 <_sbrk>
 8003190:	1c43      	adds	r3, r0, #1
 8003192:	d102      	bne.n	800319a <_sbrk_r+0x1a>
 8003194:	682b      	ldr	r3, [r5, #0]
 8003196:	b103      	cbz	r3, 800319a <_sbrk_r+0x1a>
 8003198:	6023      	str	r3, [r4, #0]
 800319a:	bd38      	pop	{r3, r4, r5, pc}
 800319c:	200005c0 	.word	0x200005c0

080031a0 <memcpy>:
 80031a0:	440a      	add	r2, r1
 80031a2:	4291      	cmp	r1, r2
 80031a4:	f100 33ff 	add.w	r3, r0, #4294967295
 80031a8:	d100      	bne.n	80031ac <memcpy+0xc>
 80031aa:	4770      	bx	lr
 80031ac:	b510      	push	{r4, lr}
 80031ae:	f811 4b01 	ldrb.w	r4, [r1], #1
 80031b2:	f803 4f01 	strb.w	r4, [r3, #1]!
 80031b6:	4291      	cmp	r1, r2
 80031b8:	d1f9      	bne.n	80031ae <memcpy+0xe>
 80031ba:	bd10      	pop	{r4, pc}

080031bc <_realloc_r>:
 80031bc:	e92d 41f0 	stmdb	sp!, {r4, r5, r6, r7, r8, lr}
 80031c0:	4607      	mov	r7, r0
 80031c2:	4614      	mov	r4, r2
 80031c4:	460d      	mov	r5, r1
 80031c6:	b921      	cbnz	r1, 80031d2 <_realloc_r+0x16>
 80031c8:	e8bd 41f0 	ldmia.w	sp!, {r4, r5, r6, r7, r8, lr}
 80031cc:	4611      	mov	r1, r2
 80031ce:	f7ff bc4d 	b.w	8002a6c <_malloc_r>
 80031d2:	b92a      	cbnz	r2, 80031e0 <_realloc_r+0x24>
 80031d4:	f7ff fbde 	bl	8002994 <_free_r>
 80031d8:	4625      	mov	r5, r4
 80031da:	4628      	mov	r0, r5
 80031dc:	e8bd 81f0 	ldmia.w	sp!, {r4, r5, r6, r7, r8, pc}
 80031e0:	f000 f81a 	bl	8003218 <_malloc_usable_size_r>
 80031e4:	4284      	cmp	r4, r0
 80031e6:	4606      	mov	r6, r0
 80031e8:	d802      	bhi.n	80031f0 <_realloc_r+0x34>
 80031ea:	ebb4 0f50 	cmp.w	r4, r0, lsr #1
 80031ee:	d8f4      	bhi.n	80031da <_realloc_r+0x1e>
 80031f0:	4621      	mov	r1, r4
 80031f2:	4638      	mov	r0, r7
 80031f4:	f7ff fc3a 	bl	8002a6c <_malloc_r>
 80031f8:	4680      	mov	r8, r0
 80031fa:	b908      	cbnz	r0, 8003200 <_realloc_r+0x44>
 80031fc:	4645      	mov	r5, r8
 80031fe:	e7ec      	b.n	80031da <_realloc_r+0x1e>
 8003200:	42b4      	cmp	r4, r6
 8003202:	4622      	mov	r2, r4
 8003204:	4629      	mov	r1, r5
 8003206:	bf28      	it	cs
 8003208:	4632      	movcs	r2, r6
 800320a:	f7ff ffc9 	bl	80031a0 <memcpy>
 800320e:	4629      	mov	r1, r5
 8003210:	4638      	mov	r0, r7
 8003212:	f7ff fbbf 	bl	8002994 <_free_r>
 8003216:	e7f1      	b.n	80031fc <_realloc_r+0x40>

08003218 <_malloc_usable_size_r>:
 8003218:	f851 3c04 	ldr.w	r3, [r1, #-4]
 800321c:	1f18      	subs	r0, r3, #4
 800321e:	2b00      	cmp	r3, #0
 8003220:	bfbc      	itt	lt
 8003222:	580b      	ldrlt	r3, [r1, r0]
 8003224:	18c0      	addlt	r0, r0, r3
 8003226:	4770      	bx	lr

08003228 <_init>:
 8003228:	b5f8      	push	{r3, r4, r5, r6, r7, lr}
 800322a:	bf00      	nop
 800322c:	bcf8      	pop	{r3, r4, r5, r6, r7}
 800322e:	bc08      	pop	{r3}
 8003230:	469e      	mov	lr, r3
 8003232:	4770      	bx	lr

08003234 <_fini>:
 8003234:	b5f8      	push	{r3, r4, r5, r6, r7, lr}
 8003236:	bf00      	nop
 8003238:	bcf8      	pop	{r3, r4, r5, r6, r7}
 800323a:	bc08      	pop	{r3}
 800323c:	469e      	mov	lr, r3
 800323e:	4770      	bx	lr
